---
triple:          'arm64-apple-darwin'
binary-path:     noforward
relocations:
  - { offset: 0xF1CA, size: 0x8, addend: 0x0, symName: __ZStL8__ioinit, symObjAddr: 0x884DC, symBinAddr: 0x100018000, symSize: 0x0 }
  - { offset: 0x1010A, size: 0x8, addend: 0x0, symName: __ZNSt10_Head_baseILm0ERKiLb0EE7_M_headERS2_, symObjAddr: 0x9C98, symBinAddr: 0x10000D720, symSize: 0x18 }
  - { offset: 0x10133, size: 0x8, addend: 0x0, symName: __ZNSt11_Tuple_implILm0EJRKiEE7_M_headERS2_, symObjAddr: 0x9C7C, symBinAddr: 0x10000D704, symSize: 0x1C }
  - { offset: 0x1015D, size: 0x8, addend: 0x0, symName: __ZSt12__get_helperILm0ERKiJEERT0_RSt11_Tuple_implIXT_EJS2_DpT1_EE, symObjAddr: 0x9C60, symBinAddr: 0x10000D6E8, symSize: 0x1C }
  - { offset: 0x101A5, size: 0x8, addend: 0x0, symName: __ZSt7forwardIRKiEOT_RNSt16remove_referenceIS2_E4typeE, symObjAddr: 0x9C4C, symBinAddr: 0x10000D6D4, symSize: 0x14 }
  - { offset: 0x101D7, size: 0x8, addend: 0x0, symName: __ZSt3getILm0EJRKiEERNSt13tuple_elementIXT_ESt5tupleIJDpT0_EEE4typeERS6_, symObjAddr: 0x9C30, symBinAddr: 0x10000D6B8, symSize: 0x1C }
  - { offset: 0x10216, size: 0x8, addend: 0x0, symName: __ZNSt11__copy_moveILb0ELb0ESt26random_access_iterator_tagE12__assign_oneIiKiEEvPT_PT0_, symObjAddr: 0x9C08, symBinAddr: 0x10000D690, symSize: 0x28 }
  - { offset: 0x10269, size: 0x8, addend: 0x0, symName: __ZSt7forwardINSt7__cxx1112basic_stringIcSt11char_traitsIcESaIcEEEEOT_RNSt16remove_referenceIS6_E4typeE, symObjAddr: 0x9BF4, symBinAddr: 0x10000D67C, symSize: 0x14 }
  - { offset: 0x102A1, size: 0x8, addend: 0x0, symName: __ZSteqIPNSt7__cxx1112basic_stringIcSt11char_traitsIcESaIcEEEEbRKSt13move_iteratorIT_ESB_, symObjAddr: 0x9BB4, symBinAddr: 0x10000D63C, symSize: 0x40 }
  - { offset: 0x102E9, size: 0x8, addend: 0x0, symName: __ZNKSt13move_iteratorIPNSt7__cxx1112basic_stringIcSt11char_traitsIcESaIcEEEE4baseEv, symObjAddr: 0x9B9C, symBinAddr: 0x10000D624, symSize: 0x18 }
  - { offset: 0x1037C, size: 0x8, addend: 0x0, symName: __ZNSt4pairIKiNSt7__cxx1112basic_stringIcSt11char_traitsIcESaIcEEEEC1IJRS0_EJLm0EEJEJEEERSt5tupleIJDpT_EERSA_IJDpT1_EESt12_Index_tupleIJXspT0_EEESJ_IJXspT2_EEE, symObjAddr: 0x9B50, symBinAddr: 0x10000D5D8, symSize: 0x4C }
  - { offset: 0x103EB, size: 0x8, addend: 0x0, symName: __ZNSt11__copy_moveILb0ELb1ESt26random_access_iterator_tagE8__copy_mIKiiEEPT0_PT_S7_S5_, symObjAddr: 0x9AC0, symBinAddr: 0x10000D548, symSize: 0x90 }
  - { offset: 0x104BF, size: 0x8, addend: 0x0, symName: __ZNSt4pairIKiNSt7__cxx1112basic_stringIcSt11char_traitsIcESaIcEEEEC1ERKS7_, symObjAddr: 0x9A78, symBinAddr: 0x10000D500, symSize: 0x48 }
  - { offset: 0x104EA, size: 0x8, addend: 0x0, symName: __ZSt9__fill_a1IPiiEN9__gnu_cxx11__enable_ifIXsrSt11__is_scalarIT0_E7__valueEvE6__typeET_S8_RKS4_, symObjAddr: 0x9A20, symBinAddr: 0x10000D4A8, symSize: 0x58 }
  - { offset: 0x1055F, size: 0x8, addend: 0x0, symName: __ZSt7forwardIRKPKcEOT_RNSt16remove_referenceIS4_E4typeE, symObjAddr: 0x9A0C, symBinAddr: 0x10000D494, symSize: 0x14 }
  - { offset: 0x10591, size: 0x8, addend: 0x0, symName: __ZSt10_ConstructINSt7__cxx1112basic_stringIcSt11char_traitsIcESaIcEEEJS5_EEvPT_DpOT0_, symObjAddr: 0x99C0, symBinAddr: 0x10000D448, symSize: 0x4C }
  - { offset: 0x105E1, size: 0x8, addend: 0x0, symName: __ZNKSt13move_iteratorIPNSt7__cxx1112basic_stringIcSt11char_traitsIcESaIcEEEEdeEv, symObjAddr: 0x99A8, symBinAddr: 0x10000D430, symSize: 0x18 }
  - { offset: 0x1060B, size: 0x8, addend: 0x0, symName: __ZNSt13move_iteratorIPNSt7__cxx1112basic_stringIcSt11char_traitsIcESaIcEEEEppEv, symObjAddr: 0x9980, symBinAddr: 0x10000D408, symSize: 0x28 }
  - { offset: 0x10631, size: 0x8, addend: 0x0, symName: __ZStneIPNSt7__cxx1112basic_stringIcSt11char_traitsIcESaIcEEEEbRKSt13move_iteratorIT_ESB_, symObjAddr: 0x9954, symBinAddr: 0x10000D3DC, symSize: 0x2C }
  - { offset: 0x106C4, size: 0x8, addend: 0x0, symName: __ZNSt4pairIKiNSt7__cxx1112basic_stringIcSt11char_traitsIcESaIcEEEEC1IJRS0_EJEEESt21piecewise_construct_tSt5tupleIJDpT_EESB_IJDpT0_EE, symObjAddr: 0x9918, symBinAddr: 0x10000D3A0, symSize: 0x3C }
  - { offset: 0x1073E, size: 0x8, addend: 0x0, symName: __ZNSt11_Tuple_implILm0EJRKiEEC2EOS2_, symObjAddr: 0x98F0, symBinAddr: 0x10000D378, symSize: 0x28 }
  - { offset: 0x10769, size: 0x8, addend: 0x0, symName: __ZSt14__copy_move_a2ILb0EPKiPiET1_T0_S4_S3_, symObjAddr: 0x98C4, symBinAddr: 0x10000D34C, symSize: 0x2C }
  - { offset: 0x107D5, size: 0x8, addend: 0x0, symName: __ZNK9__gnu_cxx17__normal_iteratorIPKiSt6vectorIiSaIiEEE4baseEv, symObjAddr: 0x98B0, symBinAddr: 0x10000D338, symSize: 0x14 }
  - { offset: 0x10845, size: 0x8, addend: 0x0, symName: __ZSt7forwardIRKSt6vectorIiSaIiEEEOT_RNSt16remove_referenceIS5_E4typeE, symObjAddr: 0x989C, symBinAddr: 0x10000D324, symSize: 0x14 }
  - { offset: 0x10877, size: 0x8, addend: 0x0, symName: __ZSt8__fill_aIPiiEvT_S1_RKT0_, symObjAddr: 0x986C, symBinAddr: 0x10000D2F4, symSize: 0x30 }
  - { offset: 0x108D5, size: 0x8, addend: 0x0, symName: __ZSt10_ConstructINSt7__cxx1112basic_stringIcSt11char_traitsIcESaIcEEEJRKPKcEEvPT_DpOT0_, symObjAddr: 0x97BC, symBinAddr: 0x10000D244, symSize: 0xB0 }
  - { offset: 0x109A4, size: 0x8, addend: 0x0, symName: __ZNSt20__copy_move_backwardILb1ELb0ESt26random_access_iterator_tagE13__copy_move_bIPNSt7__cxx1112basic_stringIcSt11char_traitsIcESaIcEEES9_EET0_T_SB_SA_, symObjAddr: 0x9740, symBinAddr: 0x10000D1C8, symSize: 0x7C }
  - { offset: 0x10A13, size: 0x8, addend: 0x0, symName: __ZSt16__do_uninit_copyISt13move_iteratorIPNSt7__cxx1112basic_stringIcSt11char_traitsIcESaIcEEEES7_ET0_T_SA_S9_, symObjAddr: 0x9698, symBinAddr: 0x10000D120, symSize: 0xA8 }
  - { offset: 0x10A86, size: 0x8, addend: 0x0, symName: __ZNK9__gnu_cxx16__aligned_membufISt4pairIKiNSt7__cxx1112basic_stringIcSt11char_traitsIcESaIcEEEEE7_M_addrEv, symObjAddr: 0x9684, symBinAddr: 0x10000D10C, symSize: 0x14 }
  - { offset: 0x10B31, size: 0x8, addend: 0x0, symName: __ZNSt5tupleIJRKiEEC1EOS2_, symObjAddr: 0x965C, symBinAddr: 0x10000D0E4, symSize: 0x28 }
  - { offset: 0x10B60, size: 0x8, addend: 0x0, symName: __ZNSt15__new_allocatorISt13_Rb_tree_nodeISt4pairIKiNSt7__cxx1112basic_stringIcSt11char_traitsIcESaIcEEEEEE8allocateEmPKv, symObjAddr: 0x95C4, symBinAddr: 0x10000D04C, symSize: 0x98 }
  - { offset: 0x10BE8, size: 0x8, addend: 0x0, symName: __ZSt12__niter_wrapIPiET_RKS1_S1_, symObjAddr: 0x95AC, symBinAddr: 0x10000D034, symSize: 0x18 }
  - { offset: 0x10C24, size: 0x8, addend: 0x0, symName: __ZSt14__copy_move_a1ILb0EPKiPiET1_T0_S4_S3_, symObjAddr: 0x9580, symBinAddr: 0x10000D008, symSize: 0x2C }
  - { offset: 0x10C8C, size: 0x8, addend: 0x0, symName: __ZSt12__niter_baseIPiET_S1_, symObjAddr: 0x956C, symBinAddr: 0x10000CFF4, symSize: 0x14 }
  - { offset: 0x10CBF, size: 0x8, addend: 0x0, symName: __ZSt12__niter_baseIPKiSt6vectorIiSaIiEEET_N9__gnu_cxx17__normal_iteratorIS5_T0_EE, symObjAddr: 0x954C, symBinAddr: 0x10000CFD4, symSize: 0x20 }
  - { offset: 0x10CFF, size: 0x8, addend: 0x0, symName: __ZNSt8_Rb_treeIiSt4pairIKiNSt7__cxx1112basic_stringIcSt11char_traitsIcESaIcEEEESt10_Select1stIS8_ESt4lessIiESaIS8_EE17_M_construct_nodeIJRKS8_EEEvPSt13_Rb_tree_nodeIS8_EDpOT_, symObjAddr: 0x9448, symBinAddr: 0x10000CED0, symSize: 0x104 }
  - { offset: 0x10DB6, size: 0x8, addend: 0x0, symName: __ZSt10_ConstructISt6vectorIiSaIiEEJRKS2_EEvPT_DpOT0_, symObjAddr: 0x93CC, symBinAddr: 0x10000CE54, symSize: 0x7C }
  - { offset: 0x10E06, size: 0x8, addend: 0x0, symName: __ZNK9__gnu_cxx17__normal_iteratorIPKNSt7__cxx1112basic_stringIcSt11char_traitsIcESaIcEEESt6vectorIS6_SaIS6_EEE4baseEv, symObjAddr: 0x93B8, symBinAddr: 0x10000CE40, symSize: 0x14 }
  - { offset: 0x10E2C, size: 0x8, addend: 0x0, symName: __ZSt10__fill_n_aIPimiET_S1_T0_RKT1_St26random_access_iterator_tag, symObjAddr: 0x9354, symBinAddr: 0x10000CDDC, symSize: 0x64 }
  - { offset: 0x10EB2, size: 0x8, addend: 0x0, symName: __ZSt16__do_uninit_copyIPKPKcPNSt7__cxx1112basic_stringIcSt11char_traitsIcESaIcEEEET0_T_SC_SB_, symObjAddr: 0x92C0, symBinAddr: 0x10000CD48, symSize: 0x94 }
  - { offset: 0x10F33, size: 0x8, addend: 0x0, symName: __ZSt18__do_uninit_fill_nIPNSt7__cxx1112basic_stringIcSt11char_traitsIcESaIcEEEmS5_ET_S7_T0_RKT1_, symObjAddr: 0x9230, symBinAddr: 0x10000CCB8, symSize: 0x90 }
  - { offset: 0x10FAB, size: 0x8, addend: 0x0, symName: __ZSt23__copy_move_backward_a2ILb1EPNSt7__cxx1112basic_stringIcSt11char_traitsIcESaIcEEES6_ET1_T0_S8_S7_, symObjAddr: 0x9204, symBinAddr: 0x10000CC8C, symSize: 0x2C }
  - { offset: 0x11013, size: 0x8, addend: 0x0, symName: __ZNSt20__uninitialized_copyILb0EE13__uninit_copyISt13move_iteratorIPNSt7__cxx1112basic_stringIcSt11char_traitsIcESaIcEEEES9_EET0_T_SC_SB_, symObjAddr: 0x91D8, symBinAddr: 0x10000CC60, symSize: 0x2C }
  - { offset: 0x11072, size: 0x8, addend: 0x0, symName: __ZNK9__gnu_cxx16__aligned_membufISt4pairIKiNSt7__cxx1112basic_stringIcSt11char_traitsIcESaIcEEEEE6_M_ptrEv, symObjAddr: 0x91BC, symBinAddr: 0x10000CC44, symSize: 0x1C }
  - { offset: 0x110A4, size: 0x8, addend: 0x0, symName: __ZSt7forwardIRPSt13_Rb_tree_nodeISt4pairIKiNSt7__cxx1112basic_stringIcSt11char_traitsIcESaIcEEEEEEOT_RNSt16remove_referenceISD_E4typeE, symObjAddr: 0x91A8, symBinAddr: 0x10000CC30, symSize: 0x14 }
  - { offset: 0x11152, size: 0x8, addend: 0x0, symName: __ZSt13__copy_move_aILb0EN9__gnu_cxx17__normal_iteratorIPKiSt6vectorIiSaIiEEEEPiET1_T0_SA_S9_, symObjAddr: 0x9148, symBinAddr: 0x10000CBD0, symSize: 0x60 }
  - { offset: 0x111BA, size: 0x8, addend: 0x0, symName: __ZSt12__miter_baseIN9__gnu_cxx17__normal_iteratorIPKiSt6vectorIiSaIiEEEEET_S8_, symObjAddr: 0x9134, symBinAddr: 0x10000CBBC, symSize: 0x14 }
  - { offset: 0x111F1, size: 0x8, addend: 0x0, symName: __ZNSt15__new_allocatorISt13_Rb_tree_nodeISt4pairIKiNSt7__cxx1112basic_stringIcSt11char_traitsIcESaIcEEEEEE10deallocateEPSA_m, symObjAddr: 0x90F8, symBinAddr: 0x10000CB80, symSize: 0x3C }
  - { offset: 0x11267, size: 0x8, addend: 0x0, symName: __ZNSt8_Rb_treeIiSt4pairIKiNSt7__cxx1112basic_stringIcSt11char_traitsIcESaIcEEEESt10_Select1stIS8_ESt4lessIiESaIS8_EE14_M_create_nodeIJRKS8_EEEPSt13_Rb_tree_nodeIS8_EDpOT_, symObjAddr: 0x90B8, symBinAddr: 0x10000CB40, symSize: 0x40 }
  - { offset: 0x112B9, size: 0x8, addend: 0x0, symName: __ZSt18__do_uninit_fill_nIPSt6vectorIiSaIiEEmS2_ET_S4_T0_RKT1_, symObjAddr: 0x9028, symBinAddr: 0x10000CAB0, symSize: 0x90 }
  - { offset: 0x11335, size: 0x8, addend: 0x0, symName: __ZNSt15__new_allocatorISt6vectorIiSaIiEEE8allocateEmPKv, symObjAddr: 0x8F98, symBinAddr: 0x10000CA20, symSize: 0x90 }
  - { offset: 0x113BD, size: 0x8, addend: 0x0, symName: __ZSt10_ConstructINSt7__cxx1112basic_stringIcSt11char_traitsIcESaIcEEEJRKS5_EEvPT_DpOT0_, symObjAddr: 0x8F1C, symBinAddr: 0x10000C9A4, symSize: 0x7C }
  - { offset: 0x1140D, size: 0x8, addend: 0x0, symName: __ZNK9__gnu_cxx17__normal_iteratorIPKNSt7__cxx1112basic_stringIcSt11char_traitsIcESaIcEEESt6vectorIS6_SaIS6_EEEdeEv, symObjAddr: 0x8F04, symBinAddr: 0x10000C98C, symSize: 0x18 }
  - { offset: 0x11437, size: 0x8, addend: 0x0, symName: __ZN9__gnu_cxx17__normal_iteratorIPKNSt7__cxx1112basic_stringIcSt11char_traitsIcESaIcEEESt6vectorIS6_SaIS6_EEEppEv, symObjAddr: 0x8EDC, symBinAddr: 0x10000C964, symSize: 0x28 }
  - { offset: 0x11463, size: 0x8, addend: 0x0, symName: __ZN9__gnu_cxxneIPKNSt7__cxx1112basic_stringIcSt11char_traitsIcESaIcEEESt6vectorIS6_SaIS6_EEEEbRKNS_17__normal_iteratorIT_T0_EESH_, symObjAddr: 0x8E98, symBinAddr: 0x10000C920, symSize: 0x44 }
  - { offset: 0x114B0, size: 0x8, addend: 0x0, symName: __ZSt6fill_nIPimiET_S1_T0_RKT1_, symObjAddr: 0x8E50, symBinAddr: 0x10000C8D8, symSize: 0x48 }
  - { offset: 0x1153C, size: 0x8, addend: 0x0, symName: __ZNSt15__new_allocatorIiE8allocateEmPKv, symObjAddr: 0x8DD4, symBinAddr: 0x10000C85C, symSize: 0x7C }
  - { offset: 0x115C4, size: 0x8, addend: 0x0, symName: __ZNSt20__uninitialized_copyILb0EE13__uninit_copyIPKPKcPNSt7__cxx1112basic_stringIcSt11char_traitsIcESaIcEEEEET0_T_SE_SD_, symObjAddr: 0x8DA8, symBinAddr: 0x10000C830, symSize: 0x2C }
  - { offset: 0x11639, size: 0x8, addend: 0x0, symName: __ZNSt15__new_allocatorINSt7__cxx1112basic_stringIcSt11char_traitsIcESaIcEEEE8allocateEmPKv, symObjAddr: 0x8D2C, symBinAddr: 0x10000C7B4, symSize: 0x7C }
  - { offset: 0x116C1, size: 0x8, addend: 0x0, symName: __ZNSt22__uninitialized_fill_nILb0EE15__uninit_fill_nIPNSt7__cxx1112basic_stringIcSt11char_traitsIcESaIcEEEmS7_EET_S9_T0_RKT1_, symObjAddr: 0x8D00, symBinAddr: 0x10000C788, symSize: 0x2C }
  - { offset: 0x11728, size: 0x8, addend: 0x0, symName: __ZSt9__fill_a1IPNSt7__cxx1112basic_stringIcSt11char_traitsIcESaIcEEES5_EN9__gnu_cxx11__enable_ifIXntsrSt11__is_scalarIT0_E7__valueEvE6__typeET_SE_RKSA_, symObjAddr: 0x8CB0, symBinAddr: 0x10000C738, symSize: 0x50 }
  - { offset: 0x11786, size: 0x8, addend: 0x0, symName: __ZSt12__niter_wrapIPNSt7__cxx1112basic_stringIcSt11char_traitsIcESaIcEEEET_RKS7_S7_, symObjAddr: 0x8C98, symBinAddr: 0x10000C720, symSize: 0x18 }
  - { offset: 0x117C2, size: 0x8, addend: 0x0, symName: __ZSt23__copy_move_backward_a1ILb1EPNSt7__cxx1112basic_stringIcSt11char_traitsIcESaIcEEES6_ET1_T0_S8_S7_, symObjAddr: 0x8C6C, symBinAddr: 0x10000C6F4, symSize: 0x2C }
  - { offset: 0x1182A, size: 0x8, addend: 0x0, symName: __ZSt12__niter_baseIPNSt7__cxx1112basic_stringIcSt11char_traitsIcESaIcEEEET_S7_, symObjAddr: 0x8C58, symBinAddr: 0x10000C6E0, symSize: 0x14 }
  - { offset: 0x1185D, size: 0x8, addend: 0x0, symName: __ZSt18uninitialized_copyISt13move_iteratorIPNSt7__cxx1112basic_stringIcSt11char_traitsIcESaIcEEEES7_ET0_T_SA_S9_, symObjAddr: 0x8C24, symBinAddr: 0x10000C6AC, symSize: 0x34 }
  - { offset: 0x11904, size: 0x8, addend: 0x0, symName: __ZNSt13move_iteratorIPNSt7__cxx1112basic_stringIcSt11char_traitsIcESaIcEEEEC1ES6_, symObjAddr: 0x8BF4, symBinAddr: 0x10000C67C, symSize: 0x30 }
  - { offset: 0x1193B, size: 0x8, addend: 0x0, symName: __ZSt4moveIRPNSt7__cxx1112basic_stringIcSt11char_traitsIcESaIcEEEEONSt16remove_referenceIT_E4typeEOS9_, symObjAddr: 0x8BE0, symBinAddr: 0x10000C668, symSize: 0x14 }
  - { offset: 0x119DF, size: 0x8, addend: 0x0, symName: __ZNKSt13_Rb_tree_nodeISt4pairIKiNSt7__cxx1112basic_stringIcSt11char_traitsIcESaIcEEEEE9_M_valptrEv, symObjAddr: 0x8BC0, symBinAddr: 0x10000C648, symSize: 0x20 }
  - { offset: 0x11A0B, size: 0x8, addend: 0x0, symName: __ZSt7forwardIRPSt18_Rb_tree_node_baseEOT_RNSt16remove_referenceIS3_E4typeE, symObjAddr: 0x8BAC, symBinAddr: 0x10000C634, symSize: 0x14 }
  - { offset: 0x11A89, size: 0x8, addend: 0x0, symName: __ZNSt4pairIPSt18_Rb_tree_node_baseS1_EC1IRPSt13_Rb_tree_nodeIS_IKiNSt7__cxx1112basic_stringIcSt11char_traitsIcESaIcEEEEERS1_Lb1EEEOT_OT0_, symObjAddr: 0x8B64, symBinAddr: 0x10000C5EC, symSize: 0x48 }
  - { offset: 0x11AD3, size: 0x8, addend: 0x0, symName: __ZNSt8_Rb_treeIiSt4pairIKiNSt7__cxx1112basic_stringIcSt11char_traitsIcESaIcEEEESt10_Select1stIS8_ESt4lessIiESaIS8_EE5beginEv, symObjAddr: 0x8B3C, symBinAddr: 0x10000C5C4, symSize: 0x28 }
  - { offset: 0x11AFD, size: 0x8, addend: 0x0, symName: __ZNSt8_Rb_treeIiSt4pairIKiNSt7__cxx1112basic_stringIcSt11char_traitsIcESaIcEEEESt10_Select1stIS8_ESt4lessIiESaIS8_EE17_M_construct_nodeIJRKSt21piecewise_construct_tSt5tupleIJRS1_EESJ_IJEEEEEvPSt13_Rb_tree_nodeIS8_EDpOT_, symObjAddr: 0x89C0, symBinAddr: 0x10000C448, symSize: 0x17C }
  - { offset: 0x11BFE, size: 0x8, addend: 0x0, symName: __ZNSt8_Rb_treeIiSt4pairIKiNSt7__cxx1112basic_stringIcSt11char_traitsIcESaIcEEEESt10_Select1stIS8_ESt4lessIiESaIS8_EE11_M_get_nodeEv, symObjAddr: 0x8984, symBinAddr: 0x10000C40C, symSize: 0x3C }
  - { offset: 0x11C59, size: 0x8, addend: 0x0, symName: __ZN9__gnu_cxx16__aligned_membufISt4pairIKiNSt7__cxx1112basic_stringIcSt11char_traitsIcESaIcEEEEE7_M_addrEv, symObjAddr: 0x8970, symBinAddr: 0x10000C3F8, symSize: 0x14 }
  - { offset: 0x11C7F, size: 0x8, addend: 0x0, symName: __ZSt4copyIN9__gnu_cxx17__normal_iteratorIPKiSt6vectorIiSaIiEEEEPiET0_T_SA_S9_, symObjAddr: 0x8928, symBinAddr: 0x10000C3B0, symSize: 0x48 }
  - { offset: 0x11D40, size: 0x8, addend: 0x0, symName: __ZNSt8_Rb_treeIiSt4pairIKiNSt7__cxx1112basic_stringIcSt11char_traitsIcESaIcEEEESt10_Select1stIS8_ESt4lessIiESaIS8_EE21_M_get_Node_allocatorEv, symObjAddr: 0x8914, symBinAddr: 0x10000C39C, symSize: 0x14 }
  - { offset: 0x11D75, size: 0x8, addend: 0x0, symName: __ZNKSt8_Rb_treeIiSt4pairIKiNSt7__cxx1112basic_stringIcSt11char_traitsIcESaIcEEEESt10_Select1stIS8_ESt4lessIiESaIS8_EE11_Alloc_nodeclIRKS8_EEPSt13_Rb_tree_nodeIS8_EOT_, symObjAddr: 0x88D8, symBinAddr: 0x10000C360, symSize: 0x3C }
  - { offset: 0x11DD0, size: 0x8, addend: 0x0, symName: __ZSt8_DestroyISt6vectorIiSaIiEEEvPT_, symObjAddr: 0x88B8, symBinAddr: 0x10000C340, symSize: 0x20 }
  - { offset: 0x11E02, size: 0x8, addend: 0x0, symName: __ZSt11__addressofISt6vectorIiSaIiEEEPT_RS3_, symObjAddr: 0x88A4, symBinAddr: 0x10000C32C, symSize: 0x14 }
  - { offset: 0x11E34, size: 0x8, addend: 0x0, symName: __ZNSt22__uninitialized_fill_nILb0EE15__uninit_fill_nIPSt6vectorIiSaIiEEmS4_EET_S6_T0_RKT1_, symObjAddr: 0x8878, symBinAddr: 0x10000C300, symSize: 0x2C }
  - { offset: 0x11E9F, size: 0x8, addend: 0x0, symName: __ZNSt15__new_allocatorISt6vectorIiSaIiEEE10deallocateEPS2_m, symObjAddr: 0x883C, symBinAddr: 0x10000C2C4, symSize: 0x3C }
  - { offset: 0x11F1F, size: 0x8, addend: 0x0, symName: __ZSt8_DestroyINSt7__cxx1112basic_stringIcSt11char_traitsIcESaIcEEEEvPT_, symObjAddr: 0x881C, symBinAddr: 0x10000C2A4, symSize: 0x20 }
  - { offset: 0x11F51, size: 0x8, addend: 0x0, symName: __ZSt11__addressofINSt7__cxx1112basic_stringIcSt11char_traitsIcESaIcEEEEPT_RS6_, symObjAddr: 0x8808, symBinAddr: 0x10000C290, symSize: 0x14 }
  - { offset: 0x11F83, size: 0x8, addend: 0x0, symName: __ZSt16__do_uninit_copyIN9__gnu_cxx17__normal_iteratorIPKNSt7__cxx1112basic_stringIcSt11char_traitsIcESaIcEEESt6vectorIS7_SaIS7_EEEEPS7_ET0_T_SG_SF_, symObjAddr: 0x8760, symBinAddr: 0x10000C1E8, symSize: 0xA8 }
  - { offset: 0x12009, size: 0x8, addend: 0x0, symName: __ZNSt22__uninitialized_fill_nILb1EE15__uninit_fill_nIPimiEET_S3_T0_RKT1_, symObjAddr: 0x8734, symBinAddr: 0x10000C1BC, symSize: 0x2C }
  - { offset: 0x12074, size: 0x8, addend: 0x0, symName: __ZNSt15__new_allocatorIiE10deallocateEPim, symObjAddr: 0x8704, symBinAddr: 0x10000C18C, symSize: 0x30 }
  - { offset: 0x120F4, size: 0x8, addend: 0x0, symName: __ZSt18uninitialized_copyIPKPKcPNSt7__cxx1112basic_stringIcSt11char_traitsIcESaIcEEEET0_T_SC_SB_, symObjAddr: 0x86CC, symBinAddr: 0x10000C154, symSize: 0x38 }
  - { offset: 0x1216F, size: 0x8, addend: 0x0, symName: __ZNSt6vectorINSt7__cxx1112basic_stringIcSt11char_traitsIcESaIcEEESaIS5_EE11_S_max_sizeERKS6_, symObjAddr: 0x8678, symBinAddr: 0x10000C100, symSize: 0x54 }
  - { offset: 0x12226, size: 0x8, addend: 0x0, symName: __ZSt32__make_move_if_noexcept_iteratorINSt7__cxx1112basic_stringIcSt11char_traitsIcESaIcEEESt13move_iteratorIPS5_EET0_PT_, symObjAddr: 0x8654, symBinAddr: 0x10000C0DC, symSize: 0x24 }
  - { offset: 0x1228A, size: 0x8, addend: 0x0, symName: __ZNKSt6vectorINSt7__cxx1112basic_stringIcSt11char_traitsIcESaIcEEESaIS5_EE8max_sizeEv, symObjAddr: 0x8634, symBinAddr: 0x10000C0BC, symSize: 0x20 }
  - { offset: 0x122B0, size: 0x8, addend: 0x0, symName: __ZSt20uninitialized_fill_nIPNSt7__cxx1112basic_stringIcSt11char_traitsIcESaIcEEEmS5_ET_S7_T0_RKT1_, symObjAddr: 0x8604, symBinAddr: 0x10000C08C, symSize: 0x30 }
  - { offset: 0x12328, size: 0x8, addend: 0x0, symName: __ZSt8__fill_aIPNSt7__cxx1112basic_stringIcSt11char_traitsIcESaIcEEES5_EvT_S7_RKT0_, symObjAddr: 0x85D4, symBinAddr: 0x10000C05C, symSize: 0x30 }
  - { offset: 0x12386, size: 0x8, addend: 0x0, symName: __ZSt22__copy_move_backward_aILb1EPNSt7__cxx1112basic_stringIcSt11char_traitsIcESaIcEEES6_ET1_T0_S8_S7_, symObjAddr: 0x8574, symBinAddr: 0x10000BFFC, symSize: 0x60 }
  - { offset: 0x123EE, size: 0x8, addend: 0x0, symName: __ZSt12__miter_baseIPNSt7__cxx1112basic_stringIcSt11char_traitsIcESaIcEEEET_S7_, symObjAddr: 0x8560, symBinAddr: 0x10000BFE8, symSize: 0x14 }
  - { offset: 0x12421, size: 0x8, addend: 0x0, symName: __ZSt22__uninitialized_copy_aISt13move_iteratorIPNSt7__cxx1112basic_stringIcSt11char_traitsIcESaIcEEEES7_S6_ET0_T_SA_S9_RSaIT1_E, symObjAddr: 0x8530, symBinAddr: 0x10000BFB8, symSize: 0x30 }
  - { offset: 0x12491, size: 0x8, addend: 0x0, symName: __ZSt18make_move_iteratorIPNSt7__cxx1112basic_stringIcSt11char_traitsIcESaIcEEEESt13move_iteratorIT_ES8_, symObjAddr: 0x8504, symBinAddr: 0x10000BF8C, symSize: 0x2C }
  - { offset: 0x1253B, size: 0x8, addend: 0x0, symName: __ZSt7forwardIRKNSt7__cxx1112basic_stringIcSt11char_traitsIcESaIcEEEEOT_RNSt16remove_referenceIS8_E4typeE, symObjAddr: 0x84F0, symBinAddr: 0x10000BF78, symSize: 0x14 }
  - { offset: 0x12571, size: 0x8, addend: 0x0, symName: __ZNSt6vectorINSt7__cxx1112basic_stringIcSt11char_traitsIcESaIcEEESaIS5_EE16_Temporary_value6_M_ptrEv, symObjAddr: 0x84D0, symBinAddr: 0x10000BF58, symSize: 0x20 }
  - { offset: 0x125BF, size: 0x8, addend: 0x0, symName: __ZNSt6vectorINSt7__cxx1112basic_stringIcSt11char_traitsIcESaIcEEESaIS5_EE16_Temporary_value8_StorageD1Ev, symObjAddr: 0x84BC, symBinAddr: 0x10000BF44, symSize: 0x14 }
  - { offset: 0x125FF, size: 0x8, addend: 0x0, symName: __ZNSt6vectorINSt7__cxx1112basic_stringIcSt11char_traitsIcESaIcEEESaIS5_EE16_Temporary_value8_StorageC1Ev, symObjAddr: 0x84A0, symBinAddr: 0x10000BF28, symSize: 0x1C }
  - { offset: 0x12625, size: 0x8, addend: 0x0, symName: __ZNSt8_Rb_treeIiSt4pairIKiNSt7__cxx1112basic_stringIcSt11char_traitsIcESaIcEEEESt10_Select1stIS8_ESt4lessIiESaIS8_EE14_M_insert_nodeEPSt18_Rb_tree_node_baseSG_PSt13_Rb_tree_nodeIS8_E, symObjAddr: 0x83D0, symBinAddr: 0x10000BE58, symSize: 0xD0 }
  - { offset: 0x1268F, size: 0x8, addend: 0x0, symName: __ZNSt8_Rb_treeIiSt4pairIKiNSt7__cxx1112basic_stringIcSt11char_traitsIcESaIcEEEESt10_Select1stIS8_ESt4lessIiESaIS8_EE6_S_keyEPKSt13_Rb_tree_nodeIS8_E, symObjAddr: 0x83A8, symBinAddr: 0x10000BE30, symSize: 0x28 }
  - { offset: 0x126BD, size: 0x8, addend: 0x0, symName: __ZNSt17_Rb_tree_iteratorISt4pairIKiNSt7__cxx1112basic_stringIcSt11char_traitsIcESaIcEEEEEppEv, symObjAddr: 0x8378, symBinAddr: 0x10000BE00, symSize: 0x30 }
  - { offset: 0x126E7, size: 0x8, addend: 0x0, symName: __ZNSt17_Rb_tree_iteratorISt4pairIKiNSt7__cxx1112basic_stringIcSt11char_traitsIcESaIcEEEEEmmEv, symObjAddr: 0x8348, symBinAddr: 0x10000BDD0, symSize: 0x30 }
  - { offset: 0x12759, size: 0x8, addend: 0x0, symName: __ZNSt4pairIPSt18_Rb_tree_node_baseS1_EC1IRS1_S4_Lb1EEEOT_OT0_, symObjAddr: 0x8300, symBinAddr: 0x10000BD88, symSize: 0x48 }
  - { offset: 0x127A3, size: 0x8, addend: 0x0, symName: __ZNSt8_Rb_treeIiSt4pairIKiNSt7__cxx1112basic_stringIcSt11char_traitsIcESaIcEEEESt10_Select1stIS8_ESt4lessIiESaIS8_EE11_M_leftmostEv, symObjAddr: 0x82E8, symBinAddr: 0x10000BD70, symSize: 0x18 }
  - { offset: 0x127CD, size: 0x8, addend: 0x0, symName: __ZNSt8_Rb_treeIiSt4pairIKiNSt7__cxx1112basic_stringIcSt11char_traitsIcESaIcEEEESt10_Select1stIS8_ESt4lessIiESaIS8_EE24_M_get_insert_unique_posERS1_, symObjAddr: 0x8190, symBinAddr: 0x10000BC18, symSize: 0x158 }
  - { offset: 0x12899, size: 0x8, addend: 0x0, symName: __ZNSt4pairIPSt18_Rb_tree_node_baseS1_EC1IS1_S1_Lb1EEERKS1_S5_, symObjAddr: 0x8154, symBinAddr: 0x10000BBDC, symSize: 0x3C }
  - { offset: 0x128DF, size: 0x8, addend: 0x0, symName: __ZNSt8_Rb_treeIiSt4pairIKiNSt7__cxx1112basic_stringIcSt11char_traitsIcESaIcEEEESt10_Select1stIS8_ESt4lessIiESaIS8_EE6_S_keyEPKSt18_Rb_tree_node_base, symObjAddr: 0x8138, symBinAddr: 0x10000BBC0, symSize: 0x1C }
  - { offset: 0x1290D, size: 0x8, addend: 0x0, symName: __ZNSt8_Rb_treeIiSt4pairIKiNSt7__cxx1112basic_stringIcSt11char_traitsIcESaIcEEEESt10_Select1stIS8_ESt4lessIiESaIS8_EE12_M_rightmostEv, symObjAddr: 0x8120, symBinAddr: 0x10000BBA8, symSize: 0x18 }
  - { offset: 0x12937, size: 0x8, addend: 0x0, symName: __ZNKSt8_Rb_treeIiSt4pairIKiNSt7__cxx1112basic_stringIcSt11char_traitsIcESaIcEEEESt10_Select1stIS8_ESt4lessIiESaIS8_EE4sizeEv, symObjAddr: 0x8108, symBinAddr: 0x10000BB90, symSize: 0x18 }
  - { offset: 0x12961, size: 0x8, addend: 0x0, symName: __ZNKSt23_Rb_tree_const_iteratorISt4pairIKiNSt7__cxx1112basic_stringIcSt11char_traitsIcESaIcEEEEE13_M_const_castEv, symObjAddr: 0x80E0, symBinAddr: 0x10000BB68, symSize: 0x28 }
  - { offset: 0x1298B, size: 0x8, addend: 0x0, symName: __ZNSt8_Rb_treeIiSt4pairIKiNSt7__cxx1112basic_stringIcSt11char_traitsIcESaIcEEEESt10_Select1stIS8_ESt4lessIiESaIS8_EE14_M_create_nodeIJRKSt21piecewise_construct_tSt5tupleIJRS1_EESJ_IJEEEEEPSt13_Rb_tree_nodeIS8_EDpOT_, symObjAddr: 0x8070, symBinAddr: 0x10000BAF8, symSize: 0x70 }
  - { offset: 0x12A24, size: 0x8, addend: 0x0, symName: __ZNSt10_Head_baseILm0ERKiLb0EEC2ES1_, symObjAddr: 0x804C, symBinAddr: 0x10000BAD4, symSize: 0x24 }
  - { offset: 0x12A53, size: 0x8, addend: 0x0, symName: __ZN9__gnu_cxx16__aligned_membufISt4pairIKiNSt7__cxx1112basic_stringIcSt11char_traitsIcESaIcEEEEE6_M_ptrEv, symObjAddr: 0x8030, symBinAddr: 0x10000BAB8, symSize: 0x1C }
  - { offset: 0x12A7D, size: 0x8, addend: 0x0, symName: __ZNSt8_Rb_treeIiSt4pairIKiNSt7__cxx1112basic_stringIcSt11char_traitsIcESaIcEEEESt10_Select1stIS8_ESt4lessIiESaIS8_EE14_M_lower_boundEPSt13_Rb_tree_nodeIS8_EPSt18_Rb_tree_node_baseRS1_, symObjAddr: 0x7F94, symBinAddr: 0x10000BA1C, symSize: 0x9C }
  - { offset: 0x12ADA, size: 0x8, addend: 0x0, symName: __ZNSt8_Rb_treeIiSt4pairIKiNSt7__cxx1112basic_stringIcSt11char_traitsIcESaIcEEEESt10_Select1stIS8_ESt4lessIiESaIS8_EE6_M_endEv, symObjAddr: 0x7F7C, symBinAddr: 0x10000BA04, symSize: 0x18 }
  - { offset: 0x12B00, size: 0x8, addend: 0x0, symName: __ZNSt20__uninitialized_copyILb1EE13__uninit_copyIN9__gnu_cxx17__normal_iteratorIPKiSt6vectorIiSaIiEEEEPiEET0_T_SC_SB_, symObjAddr: 0x7F50, symBinAddr: 0x10000B9D8, symSize: 0x2C }
  - { offset: 0x12B5F, size: 0x8, addend: 0x0, symName: __ZNSt8_Rb_treeIiSt4pairIKiNSt7__cxx1112basic_stringIcSt11char_traitsIcESaIcEEEESt10_Select1stIS8_ESt4lessIiESaIS8_EE11_M_put_nodeEPSt13_Rb_tree_nodeIS8_E, symObjAddr: 0x7F04, symBinAddr: 0x10000B98C, symSize: 0x4C }
  - { offset: 0x12BD0, size: 0x8, addend: 0x0, symName: __ZNSt8_Rb_treeIiSt4pairIKiNSt7__cxx1112basic_stringIcSt11char_traitsIcESaIcEEEESt10_Select1stIS8_ESt4lessIiESaIS8_EE15_M_destroy_nodeEPSt13_Rb_tree_nodeIS8_E, symObjAddr: 0x7EA4, symBinAddr: 0x10000B92C, symSize: 0x60 }
  - { offset: 0x12C6B, size: 0x8, addend: 0x0, symName: __ZNSt8_Rb_treeIiSt4pairIKiNSt7__cxx1112basic_stringIcSt11char_traitsIcESaIcEEEESt10_Select1stIS8_ESt4lessIiESaIS8_EE10_M_insert_IRKS8_NSE_11_Alloc_nodeEEESt17_Rb_tree_iteratorIS8_EPSt18_Rb_tree_node_baseSM_OT_RT0_, symObjAddr: 0x7DB4, symBinAddr: 0x10000B83C, symSize: 0xF0 }
  - { offset: 0x12D10, size: 0x8, addend: 0x0, symName: __ZSt7forwardIRKSt4pairIKiNSt7__cxx1112basic_stringIcSt11char_traitsIcESaIcEEEEEOT_RNSt16remove_referenceISB_E4typeE, symObjAddr: 0x7DA0, symBinAddr: 0x10000B828, symSize: 0x14 }
  - { offset: 0x12D46, size: 0x8, addend: 0x0, symName: __ZNKSt10_Select1stISt4pairIKiNSt7__cxx1112basic_stringIcSt11char_traitsIcESaIcEEEEEclERKS8_, symObjAddr: 0x7D88, symBinAddr: 0x10000B810, symSize: 0x18 }
  - { offset: 0x12DA8, size: 0x8, addend: 0x0, symName: __ZNSt20_Rb_tree_key_compareISt4lessIiEEC2ERKS1_, symObjAddr: 0x7D70, symBinAddr: 0x10000B7F8, symSize: 0x18 }
  - { offset: 0x12DFC, size: 0x8, addend: 0x0, symName: __ZSt4moveIRSaISt13_Rb_tree_nodeISt4pairIKiNSt7__cxx1112basic_stringIcSt11char_traitsIcESaIcEEEEEEEONSt16remove_referenceIT_E4typeEOSE_, symObjAddr: 0x7D5C, symBinAddr: 0x10000B7E4, symSize: 0x14 }
  - { offset: 0x12E44, size: 0x8, addend: 0x0, symName: __ZNSt12_Destroy_auxILb0EE9__destroyIPSt6vectorIiSaIiEEEEvT_S6_, symObjAddr: 0x7D10, symBinAddr: 0x10000B798, symSize: 0x4C }
  - { offset: 0x12E86, size: 0x8, addend: 0x0, symName: __ZSt20uninitialized_fill_nIPSt6vectorIiSaIiEEmS2_ET_S4_T0_RKT1_, symObjAddr: 0x7CE0, symBinAddr: 0x10000B768, symSize: 0x30 }
  - { offset: 0x12F34, size: 0x8, addend: 0x0, symName: __ZNSt12_Vector_baseISt6vectorIiSaIiEESaIS2_EE11_M_allocateEm, symObjAddr: 0x7C90, symBinAddr: 0x10000B718, symSize: 0x50 }
  - { offset: 0x12FB6, size: 0x8, addend: 0x0, symName: __ZNSt12_Vector_baseISt6vectorIiSaIiEESaIS2_EE17_Vector_impl_dataC2Ev, symObjAddr: 0x7C64, symBinAddr: 0x10000B6EC, symSize: 0x2C }
  - { offset: 0x1300D, size: 0x8, addend: 0x0, symName: __ZNSt15__new_allocatorINSt7__cxx1112basic_stringIcSt11char_traitsIcESaIcEEEE10deallocateEPS5_m, symObjAddr: 0x7C34, symBinAddr: 0x10000B6BC, symSize: 0x30 }
  - { offset: 0x13053, size: 0x8, addend: 0x0, symName: __ZNSt12_Destroy_auxILb0EE9__destroyIPNSt7__cxx1112basic_stringIcSt11char_traitsIcESaIcEEEEEvT_S9_, symObjAddr: 0x7BE8, symBinAddr: 0x10000B670, symSize: 0x4C }
  - { offset: 0x13095, size: 0x8, addend: 0x0, symName: __ZNSt20__uninitialized_copyILb0EE13__uninit_copyIN9__gnu_cxx17__normal_iteratorIPKNSt7__cxx1112basic_stringIcSt11char_traitsIcESaIcEEESt6vectorIS9_SaIS9_EEEEPS9_EET0_T_SI_SH_, symObjAddr: 0x7BBC, symBinAddr: 0x10000B644, symSize: 0x2C }
  - { offset: 0x13113, size: 0x8, addend: 0x0, symName: __ZNSt12_Destroy_auxILb1EE9__destroyIPiEEvT_S3_, symObjAddr: 0x7BA4, symBinAddr: 0x10000B62C, symSize: 0x18 }
  - { offset: 0x13147, size: 0x8, addend: 0x0, symName: __ZSt20uninitialized_fill_nIPimiET_S1_T0_RKT1_, symObjAddr: 0x7B70, symBinAddr: 0x10000B5F8, symSize: 0x34 }
  - { offset: 0x131F5, size: 0x8, addend: 0x0, symName: __ZNSt12_Vector_baseIiSaIiEE11_M_allocateEm, symObjAddr: 0x7B20, symBinAddr: 0x10000B5A8, symSize: 0x50 }
  - { offset: 0x13277, size: 0x8, addend: 0x0, symName: __ZNSt12_Vector_baseIiSaIiEE17_Vector_impl_dataC2Ev, symObjAddr: 0x7AF4, symBinAddr: 0x10000B57C, symSize: 0x2C }
  - { offset: 0x13315, size: 0x8, addend: 0x0, symName: __ZSt22__uninitialized_copy_aIPKPKcPNSt7__cxx1112basic_stringIcSt11char_traitsIcESaIcEEES9_ET0_T_SC_SB_RSaIT1_E, symObjAddr: 0x7AC4, symBinAddr: 0x10000B54C, symSize: 0x30 }
  - { offset: 0x13385, size: 0x8, addend: 0x0, symName: __ZNSt6vectorINSt7__cxx1112basic_stringIcSt11char_traitsIcESaIcEEESaIS5_EE17_S_check_init_lenEmRKS6_, symObjAddr: 0x7A40, symBinAddr: 0x10000B4C8, symSize: 0x84 }
  - { offset: 0x13493, size: 0x8, addend: 0x0, symName: __ZN9__gnu_cxx17__normal_iteratorIPNSt7__cxx1112basic_stringIcSt11char_traitsIcESaIcEEESt6vectorIS6_SaIS6_EEEC1ERKS7_, symObjAddr: 0x7A18, symBinAddr: 0x10000B4A0, symSize: 0x28 }
  - { offset: 0x134BE, size: 0x8, addend: 0x0, symName: __ZSt34__uninitialized_move_if_noexcept_aIPNSt7__cxx1112basic_stringIcSt11char_traitsIcESaIcEEES6_SaIS5_EET0_T_S9_S8_RT1_, symObjAddr: 0x79C8, symBinAddr: 0x10000B450, symSize: 0x50 }
  - { offset: 0x1353A, size: 0x8, addend: 0x0, symName: __ZNSt12_Vector_baseINSt7__cxx1112basic_stringIcSt11char_traitsIcESaIcEEESaIS5_EE11_M_allocateEm, symObjAddr: 0x7978, symBinAddr: 0x10000B400, symSize: 0x50 }
  - { offset: 0x135A2, size: 0x8, addend: 0x0, symName: __ZNKSt6vectorINSt7__cxx1112basic_stringIcSt11char_traitsIcESaIcEEESaIS5_EE12_M_check_lenEmPKc, symObjAddr: 0x78A8, symBinAddr: 0x10000B330, symSize: 0xD0 }
  - { offset: 0x135FB, size: 0x8, addend: 0x0, symName: __ZSt24__uninitialized_fill_n_aIPNSt7__cxx1112basic_stringIcSt11char_traitsIcESaIcEEEmS5_S5_ET_S7_T0_RKT1_RSaIT2_E, symObjAddr: 0x7878, symBinAddr: 0x10000B300, symSize: 0x30 }
  - { offset: 0x13674, size: 0x8, addend: 0x0, symName: __ZSt4fillIPNSt7__cxx1112basic_stringIcSt11char_traitsIcESaIcEEES5_EvT_S7_RKT0_, symObjAddr: 0x7848, symBinAddr: 0x10000B2D0, symSize: 0x30 }
  - { offset: 0x136D2, size: 0x8, addend: 0x0, symName: __ZSt13move_backwardIPNSt7__cxx1112basic_stringIcSt11char_traitsIcESaIcEEES6_ET0_T_S8_S7_, symObjAddr: 0x7800, symBinAddr: 0x10000B288, symSize: 0x48 }
  - { offset: 0x13734, size: 0x8, addend: 0x0, symName: __ZNK9__gnu_cxx17__normal_iteratorIPNSt7__cxx1112basic_stringIcSt11char_traitsIcESaIcEEESt6vectorIS6_SaIS6_EEE4baseEv, symObjAddr: 0x77EC, symBinAddr: 0x10000B274, symSize: 0x14 }
  - { offset: 0x1375A, size: 0x8, addend: 0x0, symName: __ZSt22__uninitialized_move_aIPNSt7__cxx1112basic_stringIcSt11char_traitsIcESaIcEEES6_SaIS5_EET0_T_S9_S8_RT1_, symObjAddr: 0x779C, symBinAddr: 0x10000B224, symSize: 0x50 }
  - { offset: 0x137D8, size: 0x8, addend: 0x0, symName: __ZN9__gnu_cxxmiIPNSt7__cxx1112basic_stringIcSt11char_traitsIcESaIcEEESt6vectorIS6_SaIS6_EEEENS_17__normal_iteratorIT_T0_E15difference_typeERKSE_SH_, symObjAddr: 0x775C, symBinAddr: 0x10000B1E4, symSize: 0x40 }
  - { offset: 0x13829, size: 0x8, addend: 0x0, symName: __ZNSt6vectorINSt7__cxx1112basic_stringIcSt11char_traitsIcESaIcEEESaIS5_EE16_Temporary_value6_M_valEv, symObjAddr: 0x7744, symBinAddr: 0x10000B1CC, symSize: 0x18 }
  - { offset: 0x13877, size: 0x8, addend: 0x0, symName: __ZNSt6vectorINSt7__cxx1112basic_stringIcSt11char_traitsIcESaIcEEESaIS5_EE16_Temporary_valueD1Ev, symObjAddr: 0x76DC, symBinAddr: 0x10000B164, symSize: 0x68 }
  - { offset: 0x13936, size: 0x8, addend: 0x0, symName: __ZNSt6vectorINSt7__cxx1112basic_stringIcSt11char_traitsIcESaIcEEESaIS5_EE16_Temporary_valueC1IJRKS5_EEEPS7_DpOT_, symObjAddr: 0x75E0, symBinAddr: 0x10000B068, symSize: 0xFC }
  - { offset: 0x13A11, size: 0x8, addend: 0x0, symName: __ZNSt17_Rb_tree_iteratorISt4pairIKiNSt7__cxx1112basic_stringIcSt11char_traitsIcESaIcEEEEEC1EPSt18_Rb_tree_node_base, symObjAddr: 0x75BC, symBinAddr: 0x10000B044, symSize: 0x24 }
  - { offset: 0x13A40, size: 0x8, addend: 0x0, symName: __ZNSt8_Rb_treeIiSt4pairIKiNSt7__cxx1112basic_stringIcSt11char_traitsIcESaIcEEEESt10_Select1stIS8_ESt4lessIiESaIS8_EE10_Auto_node9_M_insertES0_IPSt18_Rb_tree_node_baseSH_E, symObjAddr: 0x7570, symBinAddr: 0x10000AFF8, symSize: 0x4C }
  - { offset: 0x13A8C, size: 0x8, addend: 0x0, symName: __ZNKSt8_Rb_treeIiSt4pairIKiNSt7__cxx1112basic_stringIcSt11char_traitsIcESaIcEEEESt10_Select1stIS8_ESt4lessIiESaIS8_EE10_Auto_node6_M_keyEv, symObjAddr: 0x7550, symBinAddr: 0x10000AFD8, symSize: 0x20 }
  - { offset: 0x13AB6, size: 0x8, addend: 0x0, symName: __ZNSt8_Rb_treeIiSt4pairIKiNSt7__cxx1112basic_stringIcSt11char_traitsIcESaIcEEEESt10_Select1stIS8_ESt4lessIiESaIS8_EE29_M_get_insert_hint_unique_posESt23_Rb_tree_const_iteratorIS8_ERS1_, symObjAddr: 0x722C, symBinAddr: 0x10000ACB4, symSize: 0x324 }
  - { offset: 0x13B85, size: 0x8, addend: 0x0, symName: __ZNSt8_Rb_treeIiSt4pairIKiNSt7__cxx1112basic_stringIcSt11char_traitsIcESaIcEEEESt10_Select1stIS8_ESt4lessIiESaIS8_EE10_Auto_nodeD1Ev, symObjAddr: 0x71E8, symBinAddr: 0x10000AC70, symSize: 0x44 }
  - { offset: 0x13BFE, size: 0x8, addend: 0x0, symName: __ZNSt8_Rb_treeIiSt4pairIKiNSt7__cxx1112basic_stringIcSt11char_traitsIcESaIcEEEESt10_Select1stIS8_ESt4lessIiESaIS8_EE10_Auto_nodeC1IJRKSt21piecewise_construct_tSt5tupleIJRS1_EESK_IJEEEEERSE_DpOT_, symObjAddr: 0x716C, symBinAddr: 0x10000ABF4, symSize: 0x7C }
  - { offset: 0x13C66, size: 0x8, addend: 0x0, symName: __ZSt7forwardISt5tupleIJEEEOT_RNSt16remove_referenceIS2_E4typeE, symObjAddr: 0x7158, symBinAddr: 0x10000ABE0, symSize: 0x14 }
  - { offset: 0x13C9E, size: 0x8, addend: 0x0, symName: __ZSt7forwardISt5tupleIJRKiEEEOT_RNSt16remove_referenceIS4_E4typeE, symObjAddr: 0x7144, symBinAddr: 0x10000ABCC, symSize: 0x14 }
  - { offset: 0x13CD6, size: 0x8, addend: 0x0, symName: __ZSt7forwardIRKSt21piecewise_construct_tEOT_RNSt16remove_referenceIS3_E4typeE, symObjAddr: 0x7130, symBinAddr: 0x10000ABB8, symSize: 0x14 }
  - { offset: 0x13D34, size: 0x8, addend: 0x0, symName: __ZNSt11_Tuple_implILm0EJRKiEEC2ES1_, symObjAddr: 0x7108, symBinAddr: 0x10000AB90, symSize: 0x28 }
  - { offset: 0x13D63, size: 0x8, addend: 0x0, symName: __ZNSt13_Rb_tree_nodeISt4pairIKiNSt7__cxx1112basic_stringIcSt11char_traitsIcESaIcEEEEE9_M_valptrEv, symObjAddr: 0x70E8, symBinAddr: 0x10000AB70, symSize: 0x20 }
  - { offset: 0x13D8D, size: 0x8, addend: 0x0, symName: __ZNKSt8_Rb_treeIiSt4pairIKiNSt7__cxx1112basic_stringIcSt11char_traitsIcESaIcEEEESt10_Select1stIS8_ESt4lessIiESaIS8_EE8key_compEv, symObjAddr: 0x70D0, symBinAddr: 0x10000AB58, symSize: 0x18 }
  - { offset: 0x13DB7, size: 0x8, addend: 0x0, symName: __ZNSt8_Rb_treeIiSt4pairIKiNSt7__cxx1112basic_stringIcSt11char_traitsIcESaIcEEEESt10_Select1stIS8_ESt4lessIiESaIS8_EE11lower_boundERS1_, symObjAddr: 0x7088, symBinAddr: 0x10000AB10, symSize: 0x48 }
  - { offset: 0x13DEE, size: 0x8, addend: 0x0, symName: __ZSt18uninitialized_copyIN9__gnu_cxx17__normal_iteratorIPKiSt6vectorIiSaIiEEEEPiET0_T_SA_S9_, symObjAddr: 0x704C, symBinAddr: 0x10000AAD4, symSize: 0x3C }
  - { offset: 0x13E95, size: 0x8, addend: 0x0, symName: __ZN9__gnu_cxx17__normal_iteratorIPKiSt6vectorIiSaIiEEEC1ERKS2_, symObjAddr: 0x7024, symBinAddr: 0x10000AAAC, symSize: 0x28 }
  - { offset: 0x13EDA, size: 0x8, addend: 0x0, symName: __ZNKSt8_Rb_treeIiSt4pairIKiNSt7__cxx1112basic_stringIcSt11char_traitsIcESaIcEEEESt10_Select1stIS8_ESt4lessIiESaIS8_EE9_M_mbeginEv, symObjAddr: 0x700C, symBinAddr: 0x10000AA94, symSize: 0x18 }
  - { offset: 0x13F04, size: 0x8, addend: 0x0, symName: __ZNSt8_Rb_treeIiSt4pairIKiNSt7__cxx1112basic_stringIcSt11char_traitsIcESaIcEEEESt10_Select1stIS8_ESt4lessIiESaIS8_EE12_M_drop_nodeEPSt13_Rb_tree_nodeIS8_E, symObjAddr: 0x6FD8, symBinAddr: 0x10000AA60, symSize: 0x34 }
  - { offset: 0x13F3B, size: 0x8, addend: 0x0, symName: __ZNSt8_Rb_treeIiSt4pairIKiNSt7__cxx1112basic_stringIcSt11char_traitsIcESaIcEEEESt10_Select1stIS8_ESt4lessIiESaIS8_EE7_S_leftEPSt18_Rb_tree_node_base, symObjAddr: 0x6FC0, symBinAddr: 0x10000AA48, symSize: 0x18 }
  - { offset: 0x13F65, size: 0x8, addend: 0x0, symName: __ZNSt8_Rb_treeIiSt4pairIKiNSt7__cxx1112basic_stringIcSt11char_traitsIcESaIcEEEESt10_Select1stIS8_ESt4lessIiESaIS8_EE8_S_rightEPSt18_Rb_tree_node_base, symObjAddr: 0x6FA8, symBinAddr: 0x10000AA30, symSize: 0x18 }
  - { offset: 0x13FB7, size: 0x8, addend: 0x0, symName: __ZNSt15__new_allocatorISt13_Rb_tree_nodeISt4pairIKiNSt7__cxx1112basic_stringIcSt11char_traitsIcESaIcEEEEEED2Ev, symObjAddr: 0x6F94, symBinAddr: 0x10000AA1C, symSize: 0x14 }
  - { offset: 0x13FDD, size: 0x8, addend: 0x0, symName: __ZNSt8_Rb_treeIiSt4pairIKiNSt7__cxx1112basic_stringIcSt11char_traitsIcESaIcEEEESt10_Select1stIS8_ESt4lessIiESaIS8_EE17_M_insert_unique_IRKS8_NSE_11_Alloc_nodeEEESt17_Rb_tree_iteratorIS8_ESt23_Rb_tree_const_iteratorIS8_EOT_RT0_, symObjAddr: 0x6F04, symBinAddr: 0x10000A98C, symSize: 0x90 }
  - { offset: 0x1405D, size: 0x8, addend: 0x0, symName: __ZNSt8_Rb_treeIiSt4pairIKiNSt7__cxx1112basic_stringIcSt11char_traitsIcESaIcEEEESt10_Select1stIS8_ESt4lessIiESaIS8_EE3endEv, symObjAddr: 0x6EDC, symBinAddr: 0x10000A964, symSize: 0x28 }
  - { offset: 0x140AF, size: 0x8, addend: 0x0, symName: __ZNSt8_Rb_treeIiSt4pairIKiNSt7__cxx1112basic_stringIcSt11char_traitsIcESaIcEEEESt10_Select1stIS8_ESt4lessIiESaIS8_EE11_Alloc_nodeC1ERSE_, symObjAddr: 0x6EB8, symBinAddr: 0x10000A940, symSize: 0x24 }
  - { offset: 0x140DE, size: 0x8, addend: 0x0, symName: __ZNKSt16initializer_listISt4pairIKiNSt7__cxx1112basic_stringIcSt11char_traitsIcESaIcEEEEE4sizeEv, symObjAddr: 0x6EA0, symBinAddr: 0x10000A928, symSize: 0x18 }
  - { offset: 0x1413E, size: 0x8, addend: 0x0, symName: __ZNSt8_Rb_treeIiSt4pairIKiNSt7__cxx1112basic_stringIcSt11char_traitsIcESaIcEEEESt10_Select1stIS8_ESt4lessIiESaIS8_EE13_Rb_tree_implISC_Lb1EEC1ERKSC_OSaISt13_Rb_tree_nodeIS8_EE, symObjAddr: 0x6E38, symBinAddr: 0x10000A8C0, symSize: 0x68 }
  - { offset: 0x14220, size: 0x8, addend: 0x0, symName: __ZSt8_DestroyIPSt6vectorIiSaIiEEEvT_S4_, symObjAddr: 0x6E10, symBinAddr: 0x10000A898, symSize: 0x28 }
  - { offset: 0x14262, size: 0x8, addend: 0x0, symName: __ZSt24__uninitialized_fill_n_aIPSt6vectorIiSaIiEEmS2_S2_ET_S4_T0_RKT1_RSaIT2_E, symObjAddr: 0x6DE0, symBinAddr: 0x10000A868, symSize: 0x30 }
  - { offset: 0x142DF, size: 0x8, addend: 0x0, symName: __ZNSt12_Vector_baseISt6vectorIiSaIiEESaIS2_EE13_M_deallocateEPS2_m, symObjAddr: 0x6D88, symBinAddr: 0x10000A810, symSize: 0x58 }
  - { offset: 0x14361, size: 0x8, addend: 0x0, symName: __ZNSt12_Vector_baseISt6vectorIiSaIiEESaIS2_EE17_M_create_storageEm, symObjAddr: 0x6D1C, symBinAddr: 0x10000A7A4, symSize: 0x6C }
  - { offset: 0x143C3, size: 0x8, addend: 0x0, symName: __ZNSt12_Vector_baseISt6vectorIiSaIiEESaIS2_EE12_Vector_implC1ERKS3_, symObjAddr: 0x6CD0, symBinAddr: 0x10000A758, symSize: 0x4C }
  - { offset: 0x14469, size: 0x8, addend: 0x0, symName: __ZNSt6vectorIS_IiSaIiEESaIS1_EE11_S_max_sizeERKS2_, symObjAddr: 0x6C74, symBinAddr: 0x10000A6FC, symSize: 0x5C }
  - { offset: 0x14552, size: 0x8, addend: 0x0, symName: __ZSt8_DestroyIPNSt7__cxx1112basic_stringIcSt11char_traitsIcESaIcEEEEvT_S7_, symObjAddr: 0x6C4C, symBinAddr: 0x10000A6D4, symSize: 0x28 }
  - { offset: 0x14594, size: 0x8, addend: 0x0, symName: __ZSt18uninitialized_copyIN9__gnu_cxx17__normal_iteratorIPKNSt7__cxx1112basic_stringIcSt11char_traitsIcESaIcEEESt6vectorIS7_SaIS7_EEEEPS7_ET0_T_SG_SF_, symObjAddr: 0x6C18, symBinAddr: 0x10000A6A0, symSize: 0x34 }
  - { offset: 0x1463B, size: 0x8, addend: 0x0, symName: __ZN9__gnu_cxx17__normal_iteratorIPKNSt7__cxx1112basic_stringIcSt11char_traitsIcESaIcEEESt6vectorIS6_SaIS6_EEEC1ERKS8_, symObjAddr: 0x6BF0, symBinAddr: 0x10000A678, symSize: 0x28 }
  - { offset: 0x1466A, size: 0x8, addend: 0x0, symName: __ZNSt12_Vector_baseINSt7__cxx1112basic_stringIcSt11char_traitsIcESaIcEEESaIS5_EE17_M_create_storageEm, symObjAddr: 0x6B90, symBinAddr: 0x10000A618, symSize: 0x60 }
  - { offset: 0x146CC, size: 0x8, addend: 0x0, symName: __ZNSt12_Vector_baseINSt7__cxx1112basic_stringIcSt11char_traitsIcESaIcEEESaIS5_EE12_Vector_implC1ERKS6_, symObjAddr: 0x6B44, symBinAddr: 0x10000A5CC, symSize: 0x4C }
  - { offset: 0x14765, size: 0x8, addend: 0x0, symName: __ZSt8_DestroyIPiEvT_S1_, symObjAddr: 0x6B1C, symBinAddr: 0x10000A5A4, symSize: 0x28 }
  - { offset: 0x147A7, size: 0x8, addend: 0x0, symName: __ZSt24__uninitialized_fill_n_aIPimiiET_S1_T0_RKT1_RSaIT2_E, symObjAddr: 0x6AEC, symBinAddr: 0x10000A574, symSize: 0x30 }
  - { offset: 0x14824, size: 0x8, addend: 0x0, symName: __ZNSt12_Vector_baseIiSaIiEE13_M_deallocateEPim, symObjAddr: 0x6A94, symBinAddr: 0x10000A51C, symSize: 0x58 }
  - { offset: 0x148A6, size: 0x8, addend: 0x0, symName: __ZNSt12_Vector_baseIiSaIiEE17_M_create_storageEm, symObjAddr: 0x6A34, symBinAddr: 0x10000A4BC, symSize: 0x60 }
  - { offset: 0x14908, size: 0x8, addend: 0x0, symName: __ZNSt12_Vector_baseIiSaIiEE12_Vector_implC1ERKS0_, symObjAddr: 0x69E8, symBinAddr: 0x10000A470, symSize: 0x4C }
  - { offset: 0x149AE, size: 0x8, addend: 0x0, symName: __ZNSt6vectorIiSaIiEE11_S_max_sizeERKS0_, symObjAddr: 0x6994, symBinAddr: 0x10000A41C, symSize: 0x54 }
  - { offset: 0x14AB7, size: 0x8, addend: 0x0, symName: __ZNSt6vectorINSt7__cxx1112basic_stringIcSt11char_traitsIcESaIcEEESaIS5_EE19_M_range_initializeIPKPKcEEvT_SD_St20forward_iterator_tag, symObjAddr: 0x68B0, symBinAddr: 0x10000A338, symSize: 0xE4 }
  - { offset: 0x14C19, size: 0x8, addend: 0x0, symName: __ZNSt12_Vector_baseINSt7__cxx1112basic_stringIcSt11char_traitsIcESaIcEEESaIS5_EEC2ERKS6_, symObjAddr: 0x6888, symBinAddr: 0x10000A310, symSize: 0x28 }
  - { offset: 0x14C5E, size: 0x8, addend: 0x0, symName: __ZNSt6vectorINSt7__cxx1112basic_stringIcSt11char_traitsIcESaIcEEESaIS5_EE15_M_erase_at_endEPS5_, symObjAddr: 0x6800, symBinAddr: 0x10000A288, symSize: 0x88 }
  - { offset: 0x14CF3, size: 0x8, addend: 0x0, symName: __ZNSt6vectorINSt7__cxx1112basic_stringIcSt11char_traitsIcESaIcEEESaIS5_EE3endEv, symObjAddr: 0x67D8, symBinAddr: 0x10000A260, symSize: 0x28 }
  - { offset: 0x14D1D, size: 0x8, addend: 0x0, symName: __ZNSt6vectorINSt7__cxx1112basic_stringIcSt11char_traitsIcESaIcEEESaIS5_EE14_M_fill_insertEN9__gnu_cxx17__normal_iteratorIPS5_S7_EEmRKS5_, symObjAddr: 0x638C, symBinAddr: 0x100009E14, symSize: 0x44C }
  - { offset: 0x14EF5, size: 0x8, addend: 0x0, symName: __ZNSt8_Rb_treeIiSt4pairIKiNSt7__cxx1112basic_stringIcSt11char_traitsIcESaIcEEEESt10_Select1stIS8_ESt4lessIiESaIS8_EE22_M_emplace_hint_uniqueIJRKSt21piecewise_construct_tSt5tupleIJRS1_EESJ_IJEEEEESt17_Rb_tree_iteratorIS8_ESt23_Rb_tree_const_iteratorIS8_EDpOT_, symObjAddr: 0x62B4, symBinAddr: 0x100009D3C, symSize: 0xD8 }
  - { offset: 0x14FB4, size: 0x8, addend: 0x0, symName: __ZNSt23_Rb_tree_const_iteratorISt4pairIKiNSt7__cxx1112basic_stringIcSt11char_traitsIcESaIcEEEEEC1ERKSt17_Rb_tree_iteratorIS8_E, symObjAddr: 0x628C, symBinAddr: 0x100009D14, symSize: 0x28 }
  - { offset: 0x15015, size: 0x8, addend: 0x0, symName: __ZNSt5tupleIJRKiEEC1ILb1ELb1EEES1_, symObjAddr: 0x6264, symBinAddr: 0x100009CEC, symSize: 0x28 }
  - { offset: 0x1504E, size: 0x8, addend: 0x0, symName: __ZNKSt4lessIiEclERKiS2_, symObjAddr: 0x6230, symBinAddr: 0x100009CB8, symSize: 0x34 }
  - { offset: 0x1509A, size: 0x8, addend: 0x0, symName: __ZNKSt17_Rb_tree_iteratorISt4pairIKiNSt7__cxx1112basic_stringIcSt11char_traitsIcESaIcEEEEEdeEv, symObjAddr: 0x6210, symBinAddr: 0x100009C98, symSize: 0x20 }
  - { offset: 0x150C4, size: 0x8, addend: 0x0, symName: __ZNKSt3mapIiNSt7__cxx1112basic_stringIcSt11char_traitsIcESaIcEEESt4lessIiESaISt4pairIKiS5_EEE8key_compEv, symObjAddr: 0x61E4, symBinAddr: 0x100009C6C, symSize: 0x2C }
  - { offset: 0x150F0, size: 0x8, addend: 0x0, symName: __ZSteqRKSt17_Rb_tree_iteratorISt4pairIKiNSt7__cxx1112basic_stringIcSt11char_traitsIcESaIcEEEEESB_, symObjAddr: 0x61B4, symBinAddr: 0x100009C3C, symSize: 0x30 }
  - { offset: 0x1512F, size: 0x8, addend: 0x0, symName: __ZNSt3mapIiNSt7__cxx1112basic_stringIcSt11char_traitsIcESaIcEEESt4lessIiESaISt4pairIKiS5_EEE3endEv, symObjAddr: 0x6198, symBinAddr: 0x100009C20, symSize: 0x1C }
  - { offset: 0x15159, size: 0x8, addend: 0x0, symName: __ZNSt3mapIiNSt7__cxx1112basic_stringIcSt11char_traitsIcESaIcEEESt4lessIiESaISt4pairIKiS5_EEE11lower_boundERS9_, symObjAddr: 0x6174, symBinAddr: 0x100009BFC, symSize: 0x24 }
  - { offset: 0x15194, size: 0x8, addend: 0x0, symName: __ZNK9__gnu_cxx17__normal_iteratorIPiSt6vectorIiSaIiEEE4baseEv, symObjAddr: 0x6160, symBinAddr: 0x100009BE8, symSize: 0x14 }
  - { offset: 0x151E6, size: 0x8, addend: 0x0, symName: __ZN9__gnu_cxx17__normal_iteratorIPiSt6vectorIiSaIiEEEC1ERKS1_, symObjAddr: 0x6138, symBinAddr: 0x100009BC0, symSize: 0x28 }
  - { offset: 0x15211, size: 0x8, addend: 0x0, symName: __ZSt22__uninitialized_copy_aIN9__gnu_cxx17__normal_iteratorIPKiSt6vectorIiSaIiEEEEPiiET0_T_SA_S9_RSaIT1_E, symObjAddr: 0x6108, symBinAddr: 0x100009B90, symSize: 0x30 }
  - { offset: 0x15285, size: 0x8, addend: 0x0, symName: __ZNKSt6vectorIiSaIiEE3endEv, symObjAddr: 0x60E0, symBinAddr: 0x100009B68, symSize: 0x28 }
  - { offset: 0x152AF, size: 0x8, addend: 0x0, symName: __ZNKSt6vectorIiSaIiEE5beginEv, symObjAddr: 0x60BC, symBinAddr: 0x100009B44, symSize: 0x24 }
  - { offset: 0x152EE, size: 0x8, addend: 0x0, symName: __ZNKSt12_Vector_baseIiSaIiEE19_M_get_Tp_allocatorEv, symObjAddr: 0x60A8, symBinAddr: 0x100009B30, symSize: 0x14 }
  - { offset: 0x15318, size: 0x8, addend: 0x0, symName: __ZNK9__gnu_cxx17__normal_iteratorIPSt6vectorIiSaIiEES1_IS3_SaIS3_EEE4baseEv, symObjAddr: 0x6094, symBinAddr: 0x100009B1C, symSize: 0x14 }
  - { offset: 0x1536A, size: 0x8, addend: 0x0, symName: __ZN9__gnu_cxx17__normal_iteratorIPSt6vectorIiSaIiEES1_IS3_SaIS3_EEEC1ERKS4_, symObjAddr: 0x606C, symBinAddr: 0x100009AF4, symSize: 0x28 }
  - { offset: 0x15399, size: 0x8, addend: 0x0, symName: __ZNSt8_Rb_treeIiSt4pairIKiNSt7__cxx1112basic_stringIcSt11char_traitsIcESaIcEEEESt10_Select1stIS8_ESt4lessIiESaIS8_EE8_M_beginEv, symObjAddr: 0x6050, symBinAddr: 0x100009AD8, symSize: 0x1C }
  - { offset: 0x153C3, size: 0x8, addend: 0x0, symName: __ZNSt8_Rb_treeIiSt4pairIKiNSt7__cxx1112basic_stringIcSt11char_traitsIcESaIcEEEESt10_Select1stIS8_ESt4lessIiESaIS8_EE8_M_eraseEPSt13_Rb_tree_nodeIS8_E, symObjAddr: 0x5FEC, symBinAddr: 0x100009A74, symSize: 0x64 }
  - { offset: 0x15442, size: 0x8, addend: 0x0, symName: __ZNSt8_Rb_treeIiSt4pairIKiNSt7__cxx1112basic_stringIcSt11char_traitsIcESaIcEEEESt10_Select1stIS8_ESt4lessIiESaIS8_EE22_M_insert_range_uniqueIPKS8_EENSt9enable_ifIXsrSt7is_sameIS8_NSt15iterator_traitsIT_E10value_typeEE5valueEvE4typeESL_SL_, symObjAddr: 0x5F6C, symBinAddr: 0x1000099F4, symSize: 0x80 }
  - { offset: 0x154A8, size: 0x8, addend: 0x0, symName: __ZNKSt16initializer_listISt4pairIKiNSt7__cxx1112basic_stringIcSt11char_traitsIcESaIcEEEEE3endEv, symObjAddr: 0x5F24, symBinAddr: 0x1000099AC, symSize: 0x48 }
  - { offset: 0x154D2, size: 0x8, addend: 0x0, symName: __ZNKSt16initializer_listISt4pairIKiNSt7__cxx1112basic_stringIcSt11char_traitsIcESaIcEEEEE5beginEv, symObjAddr: 0x5F0C, symBinAddr: 0x100009994, symSize: 0x18 }
  - { offset: 0x15532, size: 0x8, addend: 0x0, symName: __ZNSt8_Rb_treeIiSt4pairIKiNSt7__cxx1112basic_stringIcSt11char_traitsIcESaIcEEEESt10_Select1stIS8_ESt4lessIiESaIS8_EEC1ERKSC_RKSD_, symObjAddr: 0x5E94, symBinAddr: 0x10000991C, symSize: 0x78 }
  - { offset: 0x15640, size: 0x8, addend: 0x0, symName: __ZNSt15__new_allocatorISt4pairIKiNSt7__cxx1112basic_stringIcSt11char_traitsIcESaIcEEEEED2Ev, symObjAddr: 0x5E80, symBinAddr: 0x100009908, symSize: 0x14 }
  - { offset: 0x1567E, size: 0x8, addend: 0x0, symName: __ZSt12__str_concatINSt7__cxx1112basic_stringIcSt11char_traitsIcESaIcEEEET_PKNS6_10value_typeENS6_9size_typeES9_SA_RKNS6_14allocator_typeE, symObjAddr: 0x5DA0, symBinAddr: 0x100009828, symSize: 0xE0 }
  - { offset: 0x157D0, size: 0x8, addend: 0x0, symName: __ZNK9__gnu_cxx17__normal_iteratorIPcNSt7__cxx1112basic_stringIcSt11char_traitsIcESaIcEEEE4baseEv, symObjAddr: 0x5D8C, symBinAddr: 0x100009814, symSize: 0x14 }
  - { offset: 0x1584A, size: 0x8, addend: 0x0, symName: __ZNSt12_Vector_baseISt6vectorIiSaIiEESaIS2_EE19_M_get_Tp_allocatorEv, symObjAddr: 0x5D78, symBinAddr: 0x100009800, symSize: 0x14 }
  - { offset: 0x15874, size: 0x8, addend: 0x0, symName: __ZNSt6vectorIS_IiSaIiEESaIS1_EE18_M_fill_initializeEmRKS1_, symObjAddr: 0x5D20, symBinAddr: 0x1000097A8, symSize: 0x58 }
  - { offset: 0x158E4, size: 0x8, addend: 0x0, symName: __ZNSt12_Vector_baseISt6vectorIiSaIiEESaIS2_EED2Ev, symObjAddr: 0x5CC4, symBinAddr: 0x10000974C, symSize: 0x5C }
  - { offset: 0x15940, size: 0x8, addend: 0x0, symName: __ZNSt12_Vector_baseISt6vectorIiSaIiEESaIS2_EEC2EmRKS3_, symObjAddr: 0x5C70, symBinAddr: 0x1000096F8, symSize: 0x54 }
  - { offset: 0x1599F, size: 0x8, addend: 0x0, symName: __ZNSt12_Vector_baseISt6vectorIiSaIiEESaIS2_EE12_Vector_implD1Ev, symObjAddr: 0x5C44, symBinAddr: 0x1000096CC, symSize: 0x2C }
  - { offset: 0x159E4, size: 0x8, addend: 0x0, symName: __ZNSt6vectorIS_IiSaIiEESaIS1_EE17_S_check_init_lenEmRKS2_, symObjAddr: 0x5BC0, symBinAddr: 0x100009648, symSize: 0x84 }
  - { offset: 0x15ABE, size: 0x8, addend: 0x0, symName: __ZNSt15__new_allocatorISt6vectorIiSaIiEEED2Ev, symObjAddr: 0x5BAC, symBinAddr: 0x100009634, symSize: 0x14 }
  - { offset: 0x15AFA, size: 0x8, addend: 0x0, symName: __ZNSt12_Vector_baseINSt7__cxx1112basic_stringIcSt11char_traitsIcESaIcEEESaIS5_EE13_M_deallocateEPS5_m, symObjAddr: 0x5B54, symBinAddr: 0x1000095DC, symSize: 0x58 }
  - { offset: 0x15BA0, size: 0x8, addend: 0x0, symName: __ZNSt15__new_allocatorINSt7__cxx1112basic_stringIcSt11char_traitsIcESaIcEEEED2Ev, symObjAddr: 0x5B40, symBinAddr: 0x1000095C8, symSize: 0x14 }
  - { offset: 0x15BE0, size: 0x8, addend: 0x0, symName: __ZNSt12_Vector_baseINSt7__cxx1112basic_stringIcSt11char_traitsIcESaIcEEESaIS5_EE17_Vector_impl_dataC2Ev, symObjAddr: 0x5B14, symBinAddr: 0x10000959C, symSize: 0x2C }
  - { offset: 0x15C3D, size: 0x8, addend: 0x0, symName: __ZSt22__uninitialized_copy_aIN9__gnu_cxx17__normal_iteratorIPKNSt7__cxx1112basic_stringIcSt11char_traitsIcESaIcEEESt6vectorIS7_SaIS7_EEEEPS7_S7_ET0_T_SG_SF_RSaIT1_E, symObjAddr: 0x5AE4, symBinAddr: 0x10000956C, symSize: 0x30 }
  - { offset: 0x15CB1, size: 0x8, addend: 0x0, symName: __ZNSt12_Vector_baseINSt7__cxx1112basic_stringIcSt11char_traitsIcESaIcEEESaIS5_EE19_M_get_Tp_allocatorEv, symObjAddr: 0x5AD0, symBinAddr: 0x100009558, symSize: 0x14 }
  - { offset: 0x15CDB, size: 0x8, addend: 0x0, symName: __ZNKSt6vectorINSt7__cxx1112basic_stringIcSt11char_traitsIcESaIcEEESaIS5_EE3endEv, symObjAddr: 0x5AA8, symBinAddr: 0x100009530, symSize: 0x28 }
  - { offset: 0x15D05, size: 0x8, addend: 0x0, symName: __ZNKSt6vectorINSt7__cxx1112basic_stringIcSt11char_traitsIcESaIcEEESaIS5_EE5beginEv, symObjAddr: 0x5A84, symBinAddr: 0x10000950C, symSize: 0x24 }
  - { offset: 0x15D65, size: 0x8, addend: 0x0, symName: __ZNSt12_Vector_baseINSt7__cxx1112basic_stringIcSt11char_traitsIcESaIcEEESaIS5_EEC2EmRKS6_, symObjAddr: 0x5A30, symBinAddr: 0x1000094B8, symSize: 0x54 }
  - { offset: 0x15DB2, size: 0x8, addend: 0x0, symName: __ZNKSt12_Vector_baseINSt7__cxx1112basic_stringIcSt11char_traitsIcESaIcEEESaIS5_EE19_M_get_Tp_allocatorEv, symObjAddr: 0x5A1C, symBinAddr: 0x1000094A4, symSize: 0x14 }
  - { offset: 0x15E17, size: 0x8, addend: 0x0, symName: __ZNSt12_Vector_baseIiSaIiEE19_M_get_Tp_allocatorEv, symObjAddr: 0x5A08, symBinAddr: 0x100009490, symSize: 0x14 }
  - { offset: 0x15E41, size: 0x8, addend: 0x0, symName: __ZNSt6vectorIiSaIiEE18_M_fill_initializeEmRKi, symObjAddr: 0x59B0, symBinAddr: 0x100009438, symSize: 0x58 }
  - { offset: 0x15EB1, size: 0x8, addend: 0x0, symName: __ZNSt12_Vector_baseIiSaIiEED2Ev, symObjAddr: 0x5960, symBinAddr: 0x1000093E8, symSize: 0x50 }
  - { offset: 0x15F0D, size: 0x8, addend: 0x0, symName: __ZNSt12_Vector_baseIiSaIiEEC2EmRKS0_, symObjAddr: 0x590C, symBinAddr: 0x100009394, symSize: 0x54 }
  - { offset: 0x15F6C, size: 0x8, addend: 0x0, symName: __ZNSt12_Vector_baseIiSaIiEE12_Vector_implD1Ev, symObjAddr: 0x58E0, symBinAddr: 0x100009368, symSize: 0x2C }
  - { offset: 0x15FB1, size: 0x8, addend: 0x0, symName: __ZNSt6vectorIiSaIiEE17_S_check_init_lenEmRKS0_, symObjAddr: 0x585C, symBinAddr: 0x1000092E4, symSize: 0x84 }
  - { offset: 0x1608B, size: 0x8, addend: 0x0, symName: __ZNSt15__new_allocatorIiED2Ev, symObjAddr: 0x5848, symBinAddr: 0x1000092D0, symSize: 0x14 }
  - { offset: 0x160C9, size: 0x8, addend: 0x0, symName: __ZSt4moveIRNSt7__cxx1112basic_stringIcSt11char_traitsIcESaIcEEEEONSt16remove_referenceIT_E4typeEOS8_, symObjAddr: 0x5834, symBinAddr: 0x1000092BC, symSize: 0x14 }
  - { offset: 0x160FF, size: 0x8, addend: 0x0, symName: __ZNSt7__cxx1112basic_stringIcSt11char_traitsIcESaIcEE12_M_constructIPKcEEvT_S8_St20forward_iterator_tag, symObjAddr: 0x5734, symBinAddr: 0x1000091BC, symSize: 0x100 }
  - { offset: 0x16207, size: 0x8, addend: 0x0, symName: __ZZNSt7__cxx1112basic_stringIcSt11char_traitsIcESaIcEE12_M_constructIPKcEEvT_S8_St20forward_iterator_tagEN6_GuardC1EPS4_, symObjAddr: 0x56DC, symBinAddr: 0x100009164, symSize: 0x24 }
  - { offset: 0x1623A, size: 0x8, addend: 0x0, symName: __ZZNSt7__cxx1112basic_stringIcSt11char_traitsIcESaIcEE12_M_constructIPKcEEvT_S8_St20forward_iterator_tagEN6_GuardD1Ev, symObjAddr: 0x5700, symBinAddr: 0x100009188, symSize: 0x34 }
  - { offset: 0x1633A, size: 0x8, addend: 0x0, symName: __ZNSt15__new_allocatorIcED2Ev, symObjAddr: 0x56C8, symBinAddr: 0x100009150, symSize: 0x14 }
  - { offset: 0x1639E, size: 0x8, addend: 0x0, symName: __ZN9__gnu_cxx11char_traitsIcE2eqERKcS3_, symObjAddr: 0x5698, symBinAddr: 0x100009120, symSize: 0x30 }
  - { offset: 0x16428, size: 0x8, addend: 0x0, symName: __ZNSt6vectorINSt7__cxx1112basic_stringIcSt11char_traitsIcESaIcEEESaIS5_EEC1IPKPKcvEET_SD_RKS6_, symObjAddr: 0x5630, symBinAddr: 0x1000090B8, symSize: 0x68 }
  - { offset: 0x164A9, size: 0x8, addend: 0x0, symName: __ZNSt6vectorINSt7__cxx1112basic_stringIcSt11char_traitsIcESaIcEEESaIS5_EE6resizeEmRKS5_, symObjAddr: 0x5560, symBinAddr: 0x100008FE8, symSize: 0xD0 }
  - { offset: 0x164F5, size: 0x8, addend: 0x0, symName: __ZNSt3mapIiNSt7__cxx1112basic_stringIcSt11char_traitsIcESaIcEEESt4lessIiESaISt4pairIKiS5_EEEixERS9_, symObjAddr: 0x5474, symBinAddr: 0x100008EFC, symSize: 0xEC }
  - { offset: 0x16541, size: 0x8, addend: 0x0, symName: __ZNK9__gnu_cxx17__normal_iteratorIPiSt6vectorIiSaIiEEEdeEv, symObjAddr: 0x545C, symBinAddr: 0x100008EE4, symSize: 0x18 }
  - { offset: 0x1656B, size: 0x8, addend: 0x0, symName: __ZN9__gnu_cxx17__normal_iteratorIPiSt6vectorIiSaIiEEEppEv, symObjAddr: 0x5434, symBinAddr: 0x100008EBC, symSize: 0x28 }
  - { offset: 0x16597, size: 0x8, addend: 0x0, symName: __ZN9__gnu_cxxneIPiSt6vectorIiSaIiEEEEbRKNS_17__normal_iteratorIT_T0_EESA_, symObjAddr: 0x53F0, symBinAddr: 0x100008E78, symSize: 0x44 }
  - { offset: 0x165E8, size: 0x8, addend: 0x0, symName: __ZNSt6vectorIiSaIiEE3endEv, symObjAddr: 0x53C8, symBinAddr: 0x100008E50, symSize: 0x28 }
  - { offset: 0x16612, size: 0x8, addend: 0x0, symName: __ZNSt6vectorIiSaIiEE5beginEv, symObjAddr: 0x53A4, symBinAddr: 0x100008E2C, symSize: 0x24 }
  - { offset: 0x16664, size: 0x8, addend: 0x0, symName: __ZNSt6vectorIiSaIiEEC1ERKS1_, symObjAddr: 0x5290, symBinAddr: 0x100008D18, symSize: 0x114 }
  - { offset: 0x16777, size: 0x8, addend: 0x0, symName: __ZNK9__gnu_cxx17__normal_iteratorIPSt6vectorIiSaIiEES1_IS3_SaIS3_EEEdeEv, symObjAddr: 0x5278, symBinAddr: 0x100008D00, symSize: 0x18 }
  - { offset: 0x167A1, size: 0x8, addend: 0x0, symName: __ZN9__gnu_cxx17__normal_iteratorIPSt6vectorIiSaIiEES1_IS3_SaIS3_EEEppEv, symObjAddr: 0x5250, symBinAddr: 0x100008CD8, symSize: 0x28 }
  - { offset: 0x167CD, size: 0x8, addend: 0x0, symName: __ZN9__gnu_cxxneIPSt6vectorIiSaIiEES1_IS3_SaIS3_EEEEbRKNS_17__normal_iteratorIT_T0_EESC_, symObjAddr: 0x520C, symBinAddr: 0x100008C94, symSize: 0x44 }
  - { offset: 0x1681E, size: 0x8, addend: 0x0, symName: __ZNSt6vectorIS_IiSaIiEESaIS1_EE3endEv, symObjAddr: 0x51E4, symBinAddr: 0x100008C6C, symSize: 0x28 }
  - { offset: 0x16848, size: 0x8, addend: 0x0, symName: __ZNSt6vectorIS_IiSaIiEESaIS1_EE5beginEv, symObjAddr: 0x51C0, symBinAddr: 0x100008C48, symSize: 0x24 }
  - { offset: 0x16896, size: 0x8, addend: 0x0, symName: __ZNSt8_Rb_treeIiSt4pairIKiNSt7__cxx1112basic_stringIcSt11char_traitsIcESaIcEEEESt10_Select1stIS8_ESt4lessIiESaIS8_EED1Ev, symObjAddr: 0x518C, symBinAddr: 0x100008C14, symSize: 0x34 }
  - { offset: 0x168E4, size: 0x8, addend: 0x0, symName: __ZNSt8_Rb_treeIiSt4pairIKiNSt7__cxx1112basic_stringIcSt11char_traitsIcESaIcEEEESt10_Select1stIS8_ESt4lessIiESaIS8_EE13_Rb_tree_implISC_Lb1EED1Ev, symObjAddr: 0x5160, symBinAddr: 0x100008BE8, symSize: 0x2C }
  - { offset: 0x1696F, size: 0x8, addend: 0x0, symName: __ZNSt3mapIiNSt7__cxx1112basic_stringIcSt11char_traitsIcESaIcEEESt4lessIiESaISt4pairIKiS5_EEEC1ESt16initializer_listISA_ERKS7_RKSB_, symObjAddr: 0x50A0, symBinAddr: 0x100008B28, symSize: 0xC0 }
  - { offset: 0x16A84, size: 0x8, addend: 0x0, symName: __ZSt7forwardIRA4_KcEOT_RNSt16remove_referenceIS3_E4typeE, symObjAddr: 0x508C, symBinAddr: 0x100008B14, symSize: 0x14 }
  - { offset: 0x16AC2, size: 0x8, addend: 0x0, symName: __ZSt7forwardIRA3_KcEOT_RNSt16remove_referenceIS3_E4typeE, symObjAddr: 0x5078, symBinAddr: 0x100008B00, symSize: 0x14 }
  - { offset: 0x16AF8, size: 0x8, addend: 0x0, symName: __ZNKSt6vectorIiSaIiEE4sizeEv, symObjAddr: 0x5050, symBinAddr: 0x100008AD8, symSize: 0x28 }
  - { offset: 0x16B1E, size: 0x8, addend: 0x0, symName: __ZStplIcSt11char_traitsIcESaIcEENSt7__cxx1112basic_stringIT_T0_T1_EEOS8_PKS5_, symObjAddr: 0x500C, symBinAddr: 0x100008A94, symSize: 0x44 }
  - { offset: 0x16B74, size: 0x8, addend: 0x0, symName: __ZStplIcSt11char_traitsIcESaIcEENSt7__cxx1112basic_stringIT_T0_T1_EEOS8_RKS8_, symObjAddr: 0x4FC8, symBinAddr: 0x100008A50, symSize: 0x44 }
  - { offset: 0x16BCA, size: 0x8, addend: 0x0, symName: __ZStplIcSt11char_traitsIcESaIcEENSt7__cxx1112basic_stringIT_T0_T1_EERKS8_SA_, symObjAddr: 0x4F04, symBinAddr: 0x10000898C, symSize: 0xC4 }
  - { offset: 0x16C62, size: 0x8, addend: 0x0, symName: __ZSteqIcSt11char_traitsIcESaIcEEbRKNSt7__cxx1112basic_stringIT_T0_T1_EEPKS5_, symObjAddr: 0x4E90, symBinAddr: 0x100008918, symSize: 0x74 }
  - { offset: 0x16CBC, size: 0x8, addend: 0x0, symName: __ZNK9__gnu_cxx17__normal_iteratorIPcNSt7__cxx1112basic_stringIcSt11char_traitsIcESaIcEEEEdeEv, symObjAddr: 0x4E78, symBinAddr: 0x100008900, symSize: 0x18 }
  - { offset: 0x16CE6, size: 0x8, addend: 0x0, symName: __ZN9__gnu_cxx17__normal_iteratorIPcNSt7__cxx1112basic_stringIcSt11char_traitsIcESaIcEEEEppEv, symObjAddr: 0x4E50, symBinAddr: 0x1000088D8, symSize: 0x28 }
  - { offset: 0x16D12, size: 0x8, addend: 0x0, symName: __ZN9__gnu_cxxneIPcNSt7__cxx1112basic_stringIcSt11char_traitsIcESaIcEEEEEbRKNS_17__normal_iteratorIT_T0_EESD_, symObjAddr: 0x4E0C, symBinAddr: 0x100008894, symSize: 0x44 }
  - { offset: 0x16D63, size: 0x8, addend: 0x0, symName: __ZNSt6vectorINSt7__cxx1112basic_stringIcSt11char_traitsIcESaIcEEESaIS5_EEixEm, symObjAddr: 0x4DE4, symBinAddr: 0x10000886C, symSize: 0x28 }
  - { offset: 0x16DE2, size: 0x8, addend: 0x0, symName: __ZNSt7__cxx1112basic_stringIcSt11char_traitsIcESaIcEEC1IS3_EEmcRKS3_, symObjAddr: 0x4D70, symBinAddr: 0x1000087F8, symSize: 0x74 }
  - { offset: 0x16E23, size: 0x8, addend: 0x0, symName: __ZNSt6vectorIiSaIiEEixEm, symObjAddr: 0x4D48, symBinAddr: 0x1000087D0, symSize: 0x28 }
  - { offset: 0x16E5E, size: 0x8, addend: 0x0, symName: __ZNSt6vectorIS_IiSaIiEESaIS1_EEixEm, symObjAddr: 0x4D14, symBinAddr: 0x10000879C, symSize: 0x34 }
  - { offset: 0x16EBD, size: 0x8, addend: 0x0, symName: __ZNSt6vectorIS_IiSaIiEESaIS1_EED1Ev, symObjAddr: 0x4CB8, symBinAddr: 0x100008740, symSize: 0x5C }
  - { offset: 0x16F5D, size: 0x8, addend: 0x0, symName: __ZNSt6vectorIS_IiSaIiEESaIS1_EEC1EmRKS1_RKS2_, symObjAddr: 0x4C48, symBinAddr: 0x1000086D0, symSize: 0x70 }
  - { offset: 0x16FF8, size: 0x8, addend: 0x0, symName: __ZNSt12_Vector_baseINSt7__cxx1112basic_stringIcSt11char_traitsIcESaIcEEESaIS5_EED2Ev, symObjAddr: 0x4BF8, symBinAddr: 0x100008680, symSize: 0x50 }
  - { offset: 0x17058, size: 0x8, addend: 0x0, symName: __ZNSt12_Vector_baseINSt7__cxx1112basic_stringIcSt11char_traitsIcESaIcEEESaIS5_EE12_Vector_implC1Ev, symObjAddr: 0x4BC0, symBinAddr: 0x100008648, symSize: 0x38 }
  - { offset: 0x170E8, size: 0x8, addend: 0x0, symName: __ZNSt6vectorINSt7__cxx1112basic_stringIcSt11char_traitsIcESaIcEEESaIS5_EED1Ev, symObjAddr: 0x4B64, symBinAddr: 0x1000085EC, symSize: 0x5C }
  - { offset: 0x1716C, size: 0x8, addend: 0x0, symName: __ZNSt6vectorINSt7__cxx1112basic_stringIcSt11char_traitsIcESaIcEEESaIS5_EEC1ERKS7_, symObjAddr: 0x4A50, symBinAddr: 0x1000084D8, symSize: 0x114 }
  - { offset: 0x172A3, size: 0x8, addend: 0x0, symName: __ZNSt6vectorIiSaIiEED1Ev, symObjAddr: 0x49F4, symBinAddr: 0x10000847C, symSize: 0x5C }
  - { offset: 0x17343, size: 0x8, addend: 0x0, symName: __ZNSt6vectorIiSaIiEEC1EmRKiRKS0_, symObjAddr: 0x4984, symBinAddr: 0x10000840C, symSize: 0x70 }
  - { offset: 0x173BA, size: 0x8, addend: 0x0, symName: __ZNKSt6vectorINSt7__cxx1112basic_stringIcSt11char_traitsIcESaIcEEESaIS5_EE4sizeEv, symObjAddr: 0x495C, symBinAddr: 0x1000083E4, symSize: 0x28 }
  - { offset: 0x1742B, size: 0x8, addend: 0x0, symName: __ZNSt7__cxx1112basic_stringIcSt11char_traitsIcESaIcEEC1IS3_EEPKcRKS3_, symObjAddr: 0x48C0, symBinAddr: 0x100008348, symSize: 0x9C }
  - { offset: 0x17498, size: 0x8, addend: 0x0, symName: __ZSt7forwardIiEOT_RNSt16remove_referenceIS0_E4typeE, symObjAddr: 0x48AC, symBinAddr: 0x100008334, symSize: 0x14 }
  - { offset: 0x174CA, size: 0x8, addend: 0x0, symName: __ZSt3maxImERKT_S2_S2_, symObjAddr: 0x4874, symBinAddr: 0x1000082FC, symSize: 0x38 }
  - { offset: 0x1756F, size: 0x8, addend: 0x0, symName: __ZNSt7__cxx1112basic_stringIcSt11char_traitsIcESaIcEE12_Alloc_hiderD1Ev, symObjAddr: 0x4848, symBinAddr: 0x1000082D0, symSize: 0x2C }
  - { offset: 0x175D5, size: 0x8, addend: 0x0, symName: __ZN9__gnu_cxx6__stoaIlicJiEEET0_PFT_PKT1_PPS3_DpT2_EPKcS5_PmS9_, symObjAddr: 0x4744, symBinAddr: 0x1000081CC, symSize: 0x104 }
  - { offset: 0x17713, size: 0x8, addend: 0x0, symName: __ZZN9__gnu_cxx6__stoaIlicJiEEET0_PFT_PKT1_PPS3_DpT2_EPKcS5_PmS9_EN11_Save_errnoC1Ev, symObjAddr: 0x4684, symBinAddr: 0x10000810C, symSize: 0x30 }
  - { offset: 0x1773D, size: 0x8, addend: 0x0, symName: __ZZN9__gnu_cxx6__stoaIlicJiEEET0_PFT_PKT1_PPS3_DpT2_EPKcS5_PmS9_EN11_Save_errnoD1Ev, symObjAddr: 0x46B4, symBinAddr: 0x10000813C, symSize: 0x50 }
  - { offset: 0x1779F, size: 0x8, addend: 0x0, symName: __ZZN9__gnu_cxx6__stoaIlicJiEEET0_PFT_PKT1_PPS3_DpT2_EPKcS5_PmS9_EN10_Range_chk6_S_chkElSt17integral_constantIbLb1EE, symObjAddr: 0x4704, symBinAddr: 0x10000818C, symSize: 0x40 }
  - { offset: 0x177E3, size: 0x8, addend: 0x0, symName: __ZN9__gnu_cxx11char_traitsIcE6lengthEPKc, symObjAddr: 0x462C, symBinAddr: 0x1000080B4, symSize: 0x58 }
  - { offset: 0x17824, size: 0x8, addend: 0x0, symName: _main, symObjAddr: 0x4560, symBinAddr: 0x100007FE8, symSize: 0xCC }
  - { offset: 0x17911, size: 0x8, addend: 0x0, symName: __ZN11NFProcessorD1Ev, symObjAddr: 0x450C, symBinAddr: 0x100007F94, symSize: 0x54 }
  - { offset: 0x17937, size: 0x8, addend: 0x0, symName: __ZN11NFProcessor3runEv, symObjAddr: 0x3D14, symBinAddr: 0x10000779C, symSize: 0x7F8 }
  - { offset: 0x17A63, size: 0x8, addend: 0x0, symName: __ZN11NFProcessor13printpipelineEv, symObjAddr: 0x39A8, symBinAddr: 0x100007430, symSize: 0x36C }
  - { offset: 0x17BF2, size: 0x8, addend: 0x0, symName: __ZNSt3mapIiNSt7__cxx1112basic_stringIcSt11char_traitsIcESaIcEEESt4lessIiESaISt4pairIKiS5_EEED1Ev, symObjAddr: 0x3988, symBinAddr: 0x100007410, symSize: 0x20 }
  - { offset: 0x17C60, size: 0x8, addend: 0x0, symName: __ZNSt4pairIKiNSt7__cxx1112basic_stringIcSt11char_traitsIcESaIcEEEEC1IiRA4_KcLb1EEEOT_OT0_, symObjAddr: 0x38F4, symBinAddr: 0x10000737C, symSize: 0x94 }
  - { offset: 0x17D78, size: 0x8, addend: 0x0, symName: __ZNSt4pairIKiNSt7__cxx1112basic_stringIcSt11char_traitsIcESaIcEEEEC1IiRA3_KcLb1EEEOT_OT0_, symObjAddr: 0x3860, symBinAddr: 0x1000072E8, symSize: 0x94 }
  - { offset: 0x17E70, size: 0x8, addend: 0x0, symName: __ZNSt4pairIKiNSt7__cxx1112basic_stringIcSt11char_traitsIcESaIcEEEED1Ev, symObjAddr: 0x383C, symBinAddr: 0x1000072C4, symSize: 0x24 }
  - { offset: 0x17E96, size: 0x8, addend: 0x0, symName: __ZN11NFProcessor7WBSTAGEEv, symObjAddr: 0x36CC, symBinAddr: 0x100007154, symSize: 0x170 }
  - { offset: 0x17EC0, size: 0x8, addend: 0x0, symName: __ZN11NFProcessor8MEMSTAGEEv, symObjAddr: 0x3028, symBinAddr: 0x100006AB0, symSize: 0x6A4 }
  - { offset: 0x18052, size: 0x8, addend: 0x0, symName: __ZN11NFProcessor7EXSTAGEEv, symObjAddr: 0x1B90, symBinAddr: 0x100005618, symSize: 0x1498 }
  - { offset: 0x18284, size: 0x8, addend: 0x0, symName: __ZN11NFProcessor7IDSTAGEEv, symObjAddr: 0x944, symBinAddr: 0x1000043CC, symSize: 0x124C }
  - { offset: 0x1833D, size: 0x8, addend: 0x0, symName: __ZN11NFProcessor7IFSTAGEEi, symObjAddr: 0x57C, symBinAddr: 0x100004004, symSize: 0x3C8 }
  - { offset: 0x1854C, size: 0x8, addend: 0x0, symName: __ZN11NFProcessorC1ERKSt6vectorINSt7__cxx1112basic_stringIcSt11char_traitsIcESaIcEEESaIS6_EEi, symObjAddr: 0x2F4, symBinAddr: 0x100003D7C, symSize: 0x288 }
  - { offset: 0x187AD, size: 0x8, addend: 0x0, symName: __ZNSt6vectorINSt7__cxx1112basic_stringIcSt11char_traitsIcESaIcEEESaIS5_EEC1Ev, symObjAddr: 0x2D4, symBinAddr: 0x100003D5C, symSize: 0x20 }
  - { offset: 0x187ED, size: 0x8, addend: 0x0, symName: __ZNSt12_Vector_baseINSt7__cxx1112basic_stringIcSt11char_traitsIcESaIcEEESaIS5_EEC2Ev, symObjAddr: 0x2B4, symBinAddr: 0x100003D3C, symSize: 0x20 }
  - { offset: 0x1883A, size: 0x8, addend: 0x0, symName: __ZNSt12_Vector_baseINSt7__cxx1112basic_stringIcSt11char_traitsIcESaIcEEESaIS5_EE12_Vector_implD1Ev, symObjAddr: 0x288, symBinAddr: 0x100003D10, symSize: 0x2C }
  - { offset: 0x1887F, size: 0x8, addend: 0x0, symName: __ZSt3minImERKT_S2_S2_, symObjAddr: 0x250, symBinAddr: 0x100003CD8, symSize: 0x38 }
  - { offset: 0x188C5, size: 0x8, addend: 0x0, symName: __ZNSt15_Rb_tree_header8_M_resetEv, symObjAddr: 0x214, symBinAddr: 0x100003C9C, symSize: 0x3C }
  - { offset: 0x18909, size: 0x8, addend: 0x0, symName: __ZNSt15_Rb_tree_headerC2Ev, symObjAddr: 0x1EC, symBinAddr: 0x100003C74, symSize: 0x28 }
  - { offset: 0x1892B, size: 0x8, addend: 0x0, symName: __ZNSt7__cxx114stoiERKNS_12basic_stringIcSt11char_traitsIcESaIcEEEPmi, symObjAddr: 0x1A8, symBinAddr: 0x100003C30, symSize: 0x44 }
  - { offset: 0x18977, size: 0x8, addend: 0x0, symName: __ZSt17__size_to_integerm, symObjAddr: 0x194, symBinAddr: 0x100003C1C, symSize: 0x14 }
  - { offset: 0x189A1, size: 0x8, addend: 0x0, symName: __ZNSt11char_traitsIcE6lengthEPKc, symObjAddr: 0x158, symBinAddr: 0x100003BE0, symSize: 0x3C }
  - { offset: 0x189E5, size: 0x8, addend: 0x0, symName: __ZNSt11char_traitsIcE7compareEPKcS2_m, symObjAddr: 0x68, symBinAddr: 0x100003AF0, symSize: 0xF0 }
  - { offset: 0x18A6F, size: 0x8, addend: 0x0, symName: __ZNSt11char_traitsIcE2ltERKcS2_, symObjAddr: 0x30, symBinAddr: 0x100003AB8, symSize: 0x38 }
  - { offset: 0x18AB1, size: 0x8, addend: 0x0, symName: __ZdlPvS_, symObjAddr: 0x18, symBinAddr: 0x100003AA0, symSize: 0x18 }
  - { offset: 0x18AE7, size: 0x8, addend: 0x0, symName: __ZnwmPv, symObjAddr: 0x0, symBinAddr: 0x100003A88, symSize: 0x18 }
...
